Archive member included because of file (symbol)

/opt/CodeSourcery/Sourcery_CodeBench_Lite_for_ARM_EABI/bin/../lib/gcc/arm-none-eabi/4.7.3/libgcc.a(_udivsi3.o)
                              EcuM_Callout_Stubs.o (__aeabi_uidiv)
/opt/CodeSourcery/Sourcery_CodeBench_Lite_for_ARM_EABI/bin/../lib/gcc/arm-none-eabi/4.7.3/libgcc.a(_divsi3.o)
                              Can.o (__aeabi_idiv)
/opt/CodeSourcery/Sourcery_CodeBench_Lite_for_ARM_EABI/bin/../lib/gcc/arm-none-eabi/4.7.3/libgcc.a(_dvmd_tls.o)
                              /opt/CodeSourcery/Sourcery_CodeBench_Lite_for_ARM_EABI/bin/../lib/gcc/arm-none-eabi/4.7.3/libgcc.a(_udivsi3.o) (__aeabi_idiv0)
/opt/CodeSourcery/Sourcery_CodeBench_Lite_for_ARM_EABI/bin/../lib/gcc/arm-none-eabi/4.7.3/libgcc.a(_arm_addsubdf3.o)
                              IoHwAb_Digital.o (__aeabi_dadd)
/opt/CodeSourcery/Sourcery_CodeBench_Lite_for_ARM_EABI/bin/../lib/gcc/arm-none-eabi/4.7.3/libgcc.a(_arm_muldivdf3.o)
                              UltrasonicSensor.o (__aeabi_dmul)
/opt/CodeSourcery/Sourcery_CodeBench_Lite_for_ARM_EABI/bin/../lib/gcc/arm-none-eabi/4.7.3/libgcc.a(_arm_fixdfsi.o)
                              IoHwAb_Digital.o (__aeabi_d2iz)
/opt/CodeSourcery/Sourcery_CodeBench_Lite_for_ARM_EABI/bin/../lib/gcc/arm-none-eabi/4.7.3/libgcc.a(_arm_fixunsdfsi.o)
                              UltrasonicSensor.o (__aeabi_d2uiz)
/opt/CodeSourcery/Sourcery_CodeBench_Lite_for_ARM_EABI/bin/../lib/gcc/arm-none-eabi/4.7.3/libgcc.a(_arm_truncdfsf2.o)
                              java.o (__aeabi_d2f)
/opt/CodeSourcery/Sourcery_CodeBench_Lite_for_ARM_EABI/bin/../lib/gcc/arm-none-eabi/4.7.3/libgcc.a(_arm_addsubsf3.o)
                              IoHwAb_Digital.o (__aeabi_ui2f)
/opt/CodeSourcery/Sourcery_CodeBench_Lite_for_ARM_EABI/bin/../lib/gcc/arm-none-eabi/4.7.3/libgcc.a(_arm_muldivsf3.o)
                              java.o (__aeabi_fmul)
/opt/CodeSourcery/Sourcery_CodeBench_Lite_for_ARM_EABI/bin/../lib/gcc/arm-none-eabi/4.7.3/libgcc.a(_arm_fixsfsi.o)
                              java.o (__aeabi_f2iz)
/opt/CodeSourcery/Sourcery_CodeBench_Lite_for_ARM_EABI/bin/../lib/gcc/arm-none-eabi/4.7.3/libgcc.a(_arm_fixunssfsi.o)
                              IoHwAb_Digital.o (__aeabi_f2uiz)
/opt/CodeSourcery/Sourcery_CodeBench_Lite_for_ARM_EABI/bin/../lib/gcc/arm-none-eabi/4.7.3/../../../../arm-none-eabi/lib/libc.a(lib_a-abort.o)
                              system_hooks.o (abort)
/opt/CodeSourcery/Sourcery_CodeBench_Lite_for_ARM_EABI/bin/../lib/gcc/arm-none-eabi/4.7.3/../../../../arm-none-eabi/lib/libc.a(lib_a-fileno.o)
                              printf.o (fileno)
/opt/CodeSourcery/Sourcery_CodeBench_Lite_for_ARM_EABI/bin/../lib/gcc/arm-none-eabi/4.7.3/../../../../arm-none-eabi/lib/libc.a(lib_a-findfp.o)
                              /opt/CodeSourcery/Sourcery_CodeBench_Lite_for_ARM_EABI/bin/../lib/gcc/arm-none-eabi/4.7.3/../../../../arm-none-eabi/lib/libc.a(lib_a-fileno.o) (__sinit)
/opt/CodeSourcery/Sourcery_CodeBench_Lite_for_ARM_EABI/bin/../lib/gcc/arm-none-eabi/4.7.3/../../../../arm-none-eabi/lib/libc.a(lib_a-fopen.o)
                              ramlog.o (fopen)
/opt/CodeSourcery/Sourcery_CodeBench_Lite_for_ARM_EABI/bin/../lib/gcc/arm-none-eabi/4.7.3/../../../../arm-none-eabi/lib/libc.a(lib_a-fseek.o)
                              /opt/CodeSourcery/Sourcery_CodeBench_Lite_for_ARM_EABI/bin/../lib/gcc/arm-none-eabi/4.7.3/../../../../arm-none-eabi/lib/libc.a(lib_a-fopen.o) (_fseek_r)
/opt/CodeSourcery/Sourcery_CodeBench_Lite_for_ARM_EABI/bin/../lib/gcc/arm-none-eabi/4.7.3/../../../../arm-none-eabi/lib/libc.a(lib_a-fstatr.o)
                              /opt/CodeSourcery/Sourcery_CodeBench_Lite_for_ARM_EABI/bin/../lib/gcc/arm-none-eabi/4.7.3/../../../../arm-none-eabi/lib/libc.a(lib_a-fseek.o) (_fstat_r)
/opt/CodeSourcery/Sourcery_CodeBench_Lite_for_ARM_EABI/bin/../lib/gcc/arm-none-eabi/4.7.3/../../../../arm-none-eabi/lib/libc.a(lib_a-fwalk.o)
                              /opt/CodeSourcery/Sourcery_CodeBench_Lite_for_ARM_EABI/bin/../lib/gcc/arm-none-eabi/4.7.3/../../../../arm-none-eabi/lib/libc.a(lib_a-findfp.o) (_fwalk)
/opt/CodeSourcery/Sourcery_CodeBench_Lite_for_ARM_EABI/bin/../lib/gcc/arm-none-eabi/4.7.3/../../../../arm-none-eabi/lib/libc.a(lib_a-impure.o)
                              /opt/CodeSourcery/Sourcery_CodeBench_Lite_for_ARM_EABI/bin/../lib/gcc/arm-none-eabi/4.7.3/../../../../arm-none-eabi/lib/libc.a(lib_a-findfp.o) (_global_impure_ptr)
/opt/CodeSourcery/Sourcery_CodeBench_Lite_for_ARM_EABI/bin/../lib/gcc/arm-none-eabi/4.7.3/../../../../arm-none-eabi/lib/libc.a(lib_a-makebuf.o)
                              /opt/CodeSourcery/Sourcery_CodeBench_Lite_for_ARM_EABI/bin/../lib/gcc/arm-none-eabi/4.7.3/../../../../arm-none-eabi/lib/libc.a(lib_a-fseek.o) (__smakebuf_r)
/opt/CodeSourcery/Sourcery_CodeBench_Lite_for_ARM_EABI/bin/../lib/gcc/arm-none-eabi/4.7.3/../../../../arm-none-eabi/lib/libc.a(lib_a-malloc.o)
                              cirq_buffer.o (malloc)
/opt/CodeSourcery/Sourcery_CodeBench_Lite_for_ARM_EABI/bin/../lib/gcc/arm-none-eabi/4.7.3/../../../../arm-none-eabi/lib/libc.a(lib_a-mallocr.o)
                              /opt/CodeSourcery/Sourcery_CodeBench_Lite_for_ARM_EABI/bin/../lib/gcc/arm-none-eabi/4.7.3/../../../../arm-none-eabi/lib/libc.a(lib_a-findfp.o) (_malloc_r)
/opt/CodeSourcery/Sourcery_CodeBench_Lite_for_ARM_EABI/bin/../lib/gcc/arm-none-eabi/4.7.3/../../../../arm-none-eabi/lib/libc.a(lib_a-memcmp.o)
                              Com_Com.o (memcmp)
/opt/CodeSourcery/Sourcery_CodeBench_Lite_for_ARM_EABI/bin/../lib/gcc/arm-none-eabi/4.7.3/../../../../arm-none-eabi/lib/libc.a(lib_a-memcpy.o)
                              vcu_platform.o (memcpy)
/opt/CodeSourcery/Sourcery_CodeBench_Lite_for_ARM_EABI/bin/../lib/gcc/arm-none-eabi/4.7.3/../../../../arm-none-eabi/lib/libc.a(lib_a-memset.o)
                              Mcu.o (memset)
/opt/CodeSourcery/Sourcery_CodeBench_Lite_for_ARM_EABI/bin/../lib/gcc/arm-none-eabi/4.7.3/../../../../arm-none-eabi/lib/libc.a(lib_a-mlock.o)
                              /opt/CodeSourcery/Sourcery_CodeBench_Lite_for_ARM_EABI/bin/../lib/gcc/arm-none-eabi/4.7.3/../../../../arm-none-eabi/lib/libc.a(lib_a-mallocr.o) (__malloc_lock)
/opt/CodeSourcery/Sourcery_CodeBench_Lite_for_ARM_EABI/bin/../lib/gcc/arm-none-eabi/4.7.3/../../../../arm-none-eabi/lib/libc.a(lib_a-openr.o)
                              /opt/CodeSourcery/Sourcery_CodeBench_Lite_for_ARM_EABI/bin/../lib/gcc/arm-none-eabi/4.7.3/../../../../arm-none-eabi/lib/libc.a(lib_a-fopen.o) (_open_r)
/opt/CodeSourcery/Sourcery_CodeBench_Lite_for_ARM_EABI/bin/../lib/gcc/arm-none-eabi/4.7.3/../../../../arm-none-eabi/lib/libc.a(lib_a-reent.o)
                              clib_port.o (errno)
/opt/CodeSourcery/Sourcery_CodeBench_Lite_for_ARM_EABI/bin/../lib/gcc/arm-none-eabi/4.7.3/../../../../arm-none-eabi/lib/libc.a(lib_a-refill.o)
                              /opt/CodeSourcery/Sourcery_CodeBench_Lite_for_ARM_EABI/bin/../lib/gcc/arm-none-eabi/4.7.3/../../../../arm-none-eabi/lib/libc.a(lib_a-fseek.o) (__srefill_r)
/opt/CodeSourcery/Sourcery_CodeBench_Lite_for_ARM_EABI/bin/../lib/gcc/arm-none-eabi/4.7.3/../../../../arm-none-eabi/lib/libc.a(lib_a-sbrkr.o)
                              /opt/CodeSourcery/Sourcery_CodeBench_Lite_for_ARM_EABI/bin/../lib/gcc/arm-none-eabi/4.7.3/../../../../arm-none-eabi/lib/libc.a(lib_a-mallocr.o) (_sbrk_r)
/opt/CodeSourcery/Sourcery_CodeBench_Lite_for_ARM_EABI/bin/../lib/gcc/arm-none-eabi/4.7.3/../../../../arm-none-eabi/lib/libc.a(lib_a-signal.o)
                              /opt/CodeSourcery/Sourcery_CodeBench_Lite_for_ARM_EABI/bin/../lib/gcc/arm-none-eabi/4.7.3/../../../../arm-none-eabi/lib/libc.a(lib_a-abort.o) (raise)
/opt/CodeSourcery/Sourcery_CodeBench_Lite_for_ARM_EABI/bin/../lib/gcc/arm-none-eabi/4.7.3/../../../../arm-none-eabi/lib/libc.a(lib_a-signalr.o)
                              /opt/CodeSourcery/Sourcery_CodeBench_Lite_for_ARM_EABI/bin/../lib/gcc/arm-none-eabi/4.7.3/../../../../arm-none-eabi/lib/libc.a(lib_a-signal.o) (_kill_r)
/opt/CodeSourcery/Sourcery_CodeBench_Lite_for_ARM_EABI/bin/../lib/gcc/arm-none-eabi/4.7.3/../../../../arm-none-eabi/lib/libc.a(lib_a-stdio.o)
                              /opt/CodeSourcery/Sourcery_CodeBench_Lite_for_ARM_EABI/bin/../lib/gcc/arm-none-eabi/4.7.3/../../../../arm-none-eabi/lib/libc.a(lib_a-findfp.o) (__sread)
/opt/CodeSourcery/Sourcery_CodeBench_Lite_for_ARM_EABI/bin/../lib/gcc/arm-none-eabi/4.7.3/../../../../arm-none-eabi/lib/libc.a(lib_a-strcmp.o)
                              /home/avenir/Documents/dev/eclipse_ws/moped/src/core/boards/Raspberry_Pi/config/simple_stdio.o (strcmp)
/opt/CodeSourcery/Sourcery_CodeBench_Lite_for_ARM_EABI/bin/../lib/gcc/arm-none-eabi/4.7.3/../../../../arm-none-eabi/lib/libc.a(lib_a-strcpy.o)
                              resource.o (strcpy)
/opt/CodeSourcery/Sourcery_CodeBench_Lite_for_ARM_EABI/bin/../lib/gcc/arm-none-eabi/4.7.3/../../../../arm-none-eabi/lib/libc.a(lib_a-strlen.o)
                              printf.o (strlen)
/opt/CodeSourcery/Sourcery_CodeBench_Lite_for_ARM_EABI/bin/../lib/gcc/arm-none-eabi/4.7.3/../../../../arm-none-eabi/lib/libc.a(lib_a-strncpy.o)
                              task.o (strncpy)
/opt/CodeSourcery/Sourcery_CodeBench_Lite_for_ARM_EABI/bin/../lib/gcc/arm-none-eabi/4.7.3/../../../../arm-none-eabi/lib/libc.a(lib_a-strtoul.o)
                              printf.o (strtoul)
/opt/CodeSourcery/Sourcery_CodeBench_Lite_for_ARM_EABI/bin/../lib/gcc/arm-none-eabi/4.7.3/../../../../arm-none-eabi/lib/libc.a(lib_a-sysread.o)
                              printf.o (read)
/opt/CodeSourcery/Sourcery_CodeBench_Lite_for_ARM_EABI/bin/../lib/gcc/arm-none-eabi/4.7.3/../../../../arm-none-eabi/lib/libc.a(lib_a-syswrite.o)
                              clib_port.o (write)
/opt/CodeSourcery/Sourcery_CodeBench_Lite_for_ARM_EABI/bin/../lib/gcc/arm-none-eabi/4.7.3/../../../../arm-none-eabi/lib/libc.a(lib_a-writer.o)
                              /opt/CodeSourcery/Sourcery_CodeBench_Lite_for_ARM_EABI/bin/../lib/gcc/arm-none-eabi/4.7.3/../../../../arm-none-eabi/lib/libc.a(lib_a-stdio.o) (_write_r)
/opt/CodeSourcery/Sourcery_CodeBench_Lite_for_ARM_EABI/bin/../lib/gcc/arm-none-eabi/4.7.3/../../../../arm-none-eabi/lib/libc.a(lib_a-closer.o)
                              /opt/CodeSourcery/Sourcery_CodeBench_Lite_for_ARM_EABI/bin/../lib/gcc/arm-none-eabi/4.7.3/../../../../arm-none-eabi/lib/libc.a(lib_a-stdio.o) (_close_r)
/opt/CodeSourcery/Sourcery_CodeBench_Lite_for_ARM_EABI/bin/../lib/gcc/arm-none-eabi/4.7.3/../../../../arm-none-eabi/lib/libc.a(lib_a-ctype_.o)
                              /opt/CodeSourcery/Sourcery_CodeBench_Lite_for_ARM_EABI/bin/../lib/gcc/arm-none-eabi/4.7.3/../../../../arm-none-eabi/lib/libc.a(lib_a-strtoul.o) (__ctype_ptr__)
/opt/CodeSourcery/Sourcery_CodeBench_Lite_for_ARM_EABI/bin/../lib/gcc/arm-none-eabi/4.7.3/../../../../arm-none-eabi/lib/libc.a(lib_a-fclose.o)
                              /opt/CodeSourcery/Sourcery_CodeBench_Lite_for_ARM_EABI/bin/../lib/gcc/arm-none-eabi/4.7.3/../../../../arm-none-eabi/lib/libc.a(lib_a-findfp.o) (fclose)
/opt/CodeSourcery/Sourcery_CodeBench_Lite_for_ARM_EABI/bin/../lib/gcc/arm-none-eabi/4.7.3/../../../../arm-none-eabi/lib/libc.a(lib_a-fflush.o)
                              /opt/CodeSourcery/Sourcery_CodeBench_Lite_for_ARM_EABI/bin/../lib/gcc/arm-none-eabi/4.7.3/../../../../arm-none-eabi/lib/libc.a(lib_a-fseek.o) (_fflush_r)
/opt/CodeSourcery/Sourcery_CodeBench_Lite_for_ARM_EABI/bin/../lib/gcc/arm-none-eabi/4.7.3/../../../../arm-none-eabi/lib/libc.a(lib_a-flags.o)
                              /opt/CodeSourcery/Sourcery_CodeBench_Lite_for_ARM_EABI/bin/../lib/gcc/arm-none-eabi/4.7.3/../../../../arm-none-eabi/lib/libc.a(lib_a-fopen.o) (__sflags)
/opt/CodeSourcery/Sourcery_CodeBench_Lite_for_ARM_EABI/bin/../lib/gcc/arm-none-eabi/4.7.3/../../../../arm-none-eabi/lib/libc.a(lib_a-freer.o)
                              /opt/CodeSourcery/Sourcery_CodeBench_Lite_for_ARM_EABI/bin/../lib/gcc/arm-none-eabi/4.7.3/../../../../arm-none-eabi/lib/libc.a(lib_a-fseek.o) (_free_r)
/opt/CodeSourcery/Sourcery_CodeBench_Lite_for_ARM_EABI/bin/../lib/gcc/arm-none-eabi/4.7.3/../../../../arm-none-eabi/lib/libc.a(lib_a-isattyr.o)
                              /opt/CodeSourcery/Sourcery_CodeBench_Lite_for_ARM_EABI/bin/../lib/gcc/arm-none-eabi/4.7.3/../../../../arm-none-eabi/lib/libc.a(lib_a-makebuf.o) (_isatty_r)
/opt/CodeSourcery/Sourcery_CodeBench_Lite_for_ARM_EABI/bin/../lib/gcc/arm-none-eabi/4.7.3/../../../../arm-none-eabi/lib/libc.a(lib_a-lseekr.o)
                              /opt/CodeSourcery/Sourcery_CodeBench_Lite_for_ARM_EABI/bin/../lib/gcc/arm-none-eabi/4.7.3/../../../../arm-none-eabi/lib/libc.a(lib_a-stdio.o) (_lseek_r)
/opt/CodeSourcery/Sourcery_CodeBench_Lite_for_ARM_EABI/bin/../lib/gcc/arm-none-eabi/4.7.3/../../../../arm-none-eabi/lib/libc.a(lib_a-readr.o)
                              /opt/CodeSourcery/Sourcery_CodeBench_Lite_for_ARM_EABI/bin/../lib/gcc/arm-none-eabi/4.7.3/../../../../arm-none-eabi/lib/libc.a(lib_a-stdio.o) (_read_r)

Allocating common symbols
Common symbol       size              file

vehiclePositionData
                    0x14              vcu_platform.o
BufferForCommunication
                    0x7d0             java.o
LogBadType          0x10              system_hooks.o
vehiclePositionAge  0x2               vcu_platform.o
os_error            0x10              os_init.o
ack_count           0x4               java.o
Os_TaskVarList      0x39c             task.o
Com_SystemEndianness
                    0x1               Com.o
CanIf_LPduData      0x50              CanIf.o
readTotalSize       0x4               vcu_platform.o
errno               0x4               /opt/CodeSourcery/Sourcery_CodeBench_Lite_for_ARM_EABI/bin/../lib/gcc/arm-none-eabi/4.7.3/../../../../arm-none-eabi/lib/libc.a(lib_a-reent.o)
IOPORT1             0x18              Dio.o
New_Data_Flag       0x1               Rte.o
vehiclePositionY    0x2               vcu_platform.o
vehiclePositionX    0x2               vcu_platform.o
new_data            0x1               Rte.o
ModeMachines        0x1               Rte_Internal.o
stack_CanFunctionTask
                    0x800             Os_Cfg.o
IOPORT0             0x18              Dio.o
ImplDE_RearWheelSWCProto
                    0x4               Rte_RearWheelSWC.o
stack_RteTask       0x800             Os_Cfg.o
ErrorLog            0x1c              system_hooks.o
ImplDE_MotorSWCProto
                    0x10              Rte_MotorSWC.o
countWrite          0x4               vcu_platform.o
ImplDE_FrontWheelSWCProto
                    0x4               Rte_FrontWheelSWC.o
vehicleOrientation  0x1               vcu_platform.o
Ack_Flag            0x1               java.o
Servo_Value         0x1               vcu_platform.o
ImplDE_ServoSWCProto
                    0x10              Rte_ServoSWC.o
vehiclePositionQualityFactor
                    0x1               vcu_platform.o
ImplDE_AdcSWCProto  0x4               Rte_AdcSWC.o
PackageInstallation
                    0x30              vcu_platform.o
stack_SensorTask    0x800             Os_Cfg.o
BufferForPluginInstallaiton
                    0x7d0             java.o
Speed_Value         0x1               vcu_platform.o
Os_AppVar           0x2               application.o
Os_IsrVarList       0xc8              isr.o
channel             0x4               Uart.o
Os_IntSuspendAllCnt
                    0x1               os_init.o
EcuM_World          0x34              EcuM.o
stack_StartupTask   0x800             Os_Cfg.o
CanIf_Global        0x3               CanIf.o
RPortStatuses       0x1               Rte_Internal.o
Os_IntDisableAllCnt
                    0x1               os_init.o
ComConfig           0x4               Com.o
ack_data            0x1               java.o
BufferForCommunicationSCUtoVCU
                    0x7d0             java.o
ExclusiveAreas      0x1               Rte_Internal.o
countRead           0x4               java.o
PackageReadFromTCU  0x30              vcu_platform.o
stack_SquawkTask    0xa00000          Os_Cfg.o
PackageWriteToTCU   0x30              vcu_platform.o
Buffers             0x8c              Rte_Internal.o
Os_Sys              0x84              os_init.o
stack_OsIdle        0x200             Os_Cfg.o
ImplDE_PirteSWCProto
                    0x70              Rte_PirteSWC.o
_heap               0x3e80            clib_port.o
Os_IntSuspendOsCnt  0x1               os_init.o
Com_BufferPduState  0x50              Com_Com.o
writeTotalsize      0x4               java.o
ack_array_size      0x4               java.o
PackageReadFromSCU  0x30              vcu_platform.o
Os_IsrStack         0x800             isr.o
stack_ActuatorTask  0x800             Os_Cfg.o
ImplDE_LedSWCProto  0x4               Rte_LedSWC.o
ack_array           0x7d0             java.o
value               0x4               Uart.o

Memory Configuration

Name             Origin             Length             Attributes
ram              0x00008000         0x1f3fffe0
*default*        0x00000000         0xffffffff

Linker script and memory map

                0x00000004                __und_stack_size__ = 0x4
                0x00000004                __abt_stack_size__ = 0x4
                0x00000010                __fiq_stack_size__ = 0x10
                0x00002000                __irq_stack_size__ = 0x2000
                0x00000004                __svc_stack_size__ = 0x4
                0x0000a000                __sys_stack_size__ = 0xa000
                0x0000c01c                __stacks_total_size__ = (((((__und_stack_size__ + __abt_stack_size__) + __fiq_stack_size__) + __irq_stack_size__) + __svc_stack_size__) + __sys_stack_size__)
                0x00008000                __ram_start__ = ORIGIN (ram)
                0x1f3fffe0                __ram_size__ = 0x1f3fffe0
                0x1f407fe0                __ram_end__ = (__ram_start__ + __ram_size__)
                0x00008000                . = 0x8000

.text           0x00008000    0x205b4
                0x00008000                _text = .
 *(.init)
 .init          0x00008000      0x108 crt0.o
                0x00008000                _start
                0x00008040                ResetHandler
                0x000080e4                UndHandler
                0x000080e4                PrefetchHandler
                0x000080e4                AbortHandler
                0x000080e4                _unhandled_exception
                0x000080e4                SwiHandler
                0x000080e4                FiqHandler
 *(.text)
 *fill*         0x00008108        0x8 
 .text          0x00008110        0x0 Rte.o
 .text          0x00008110        0x0 Rte_Main.o
 .text          0x00008110        0x0 Rte_Calprms.o
 .text          0x00008110        0x0 Rte_Internal.o
 .text          0x00008110        0x0 Rte_Callbacks.o
 .text          0x00008110        0x0 Rte_AdcSWC.o
 .text          0x00008110        0x0 Rte_FrontWheelSWC.o
 .text          0x00008110        0x0 Rte_IoHwAb.o
 .text          0x00008110        0x0 Rte_LedSWC.o
 .text          0x00008110        0x0 Rte_MotorSWC.o
 .text          0x00008110        0x0 Rte_PirteSWC.o
 .text          0x00008110        0x0 Rte_RearWheelSWC.o
 .text          0x00008110        0x0 Rte_ServoSWC.o
 .text          0x00008110        0x0 /home/avenir/Documents/dev/eclipse_ws/moped/src/core/boards/Raspberry_Pi/config/simple_stdio.o
 .text          0x00008110        0x0 Actuator_Led.o
 .text          0x00008110        0x0 Actuator_MotorSpeed.o
 .text          0x00008110        0x0 Actuator_ServoDirection.o
 .text          0x00008110        0x0 IoHwAb.o
 .text          0x00008110        0x0 java.o
 .text          0x00008110        0x0 main.o
 .text          0x00008110        0x0 Sensor_Adc.o
 .text          0x00008110        0x0 Sensor_FrontWheel.o
 .text          0x00008110        0x0 Sensor_RearWheel.o
 .text          0x00008110        0x0 system_hooks.o
 .text          0x00008110        0x0 vcu_platform.o
 .text          0x00008110        0x0 crt0.o
 .text          0x00008110        0x0 led.o
 .text          0x00008110        0x0 bcm2835.o
 .text          0x00008110        0x0 Uart.o
 .text          0x00008110        0x0 SpeedSensor.o
 .text          0x00008110        0x0 Mcp3008.o
 .text          0x00008110        0x0 UltrasonicSensor.o
 .text          0x00008110        0x0 Os_Cfg.o
 .text          0x00008110        0x0 EcuM.o
 .text          0x00008110        0x0 EcuM_Fixed.o
 .text          0x00008110        0x0 EcuM_Main.o
 .text          0x00008110        0x0 EcuM_PBcfg.o
 .text          0x00008110        0x0 EcuM_PBHeader.o
 .text          0x00008110        0x0 EcuM_Callout_Stubs.o
 .text          0x00008110        0x0 Dma.o
 .text          0x00008110        0x0 Dma_Cfg.o
 .text          0x00008110        0x0 Mcu.o
 .text          0x00008110        0x0 Mcu_Cfg.o
 .text          0x00008110        0x0 Can.o
 .text          0x00008110        0x0 CanIf.o
 .text          0x00008110        0x0 CanIf_Cfg.o
 .text          0x00008110        0x0 CanIf_PBCfg.o
 .text          0x00008110        0x0 Dio.o
 .text          0x00008110        0x0 Dio_Lcfg.o
 .text          0x00008110        0x0 Port.o
 .text          0x00008110        0x0 Port_Cfg.o
 .text          0x00008110       0xd8 arch_krn.o
                0x00008110                IrqHandler
                0x00008160                Os_ArchSetSpAndCall
                0x0000816c                Os_ArchSwapContext
                0x00008184                Os_ArchSwapContextTo
                0x000081c4                dmb
                0x000081d0                disable
                0x000081dc                restore
 *fill*         0x000081e8        0x8 
 .text          0x000081f0        0x0 event.o
 .text          0x000081f0        0x0 os_init.o
 .text          0x000081f0        0x0 arch.o
 .text          0x000081f0        0x0 task.o
 .text          0x000081f0        0x0 resource.o
 .text          0x000081f0        0x0 alarm.o
 .text          0x000081f0        0x0 sched_table.o
 .text          0x000081f0        0x0 counter.o
 .text          0x000081f0        0x0 sys_tick.o
 .text          0x000081f0        0x0 isr.o
 .text          0x000081f0        0x0 os_arctest.o
 .text          0x000081f0        0x0 application.o
 .text          0x000081f0        0x0 irq.o
 .text          0x000081f0        0x0 Spi.o
 .text          0x000081f0        0x0 Spi_Lcfg.o
 .text          0x000081f0        0x0 Pwm_Cfg.o
 .text          0x000081f0        0x0 Det.o
 .text          0x000081f0        0x0 Det_Cfg.o
 .text          0x000081f0        0x0 Com_Cfg.o
 .text          0x000081f0        0x0 Com_PbCfg.o
 .text          0x000081f0        0x0 Com_Com.o
 .text          0x000081f0        0x0 Com_Sched.o
 .text          0x000081f0        0x0 Com.o
 .text          0x000081f0        0x0 Com_misc.o
 .text          0x000081f0        0x0 PduR_CanNm.o
 .text          0x000081f0        0x0 PduR_Com.o
 .text          0x000081f0        0x0 PduR_Logic.o
 .text          0x000081f0        0x0 PduR_LinIf.o
 .text          0x000081f0        0x0 PduR_PbCfg.o
 .text          0x000081f0        0x0 PduR_Cfg.o
 .text          0x000081f0        0x0 PduR_CanIf.o
 .text          0x000081f0        0x0 PduR_CanTp.o
 .text          0x000081f0        0x0 PduR_J1939Tp.o
 .text          0x000081f0        0x0 PduR_IpduM.o
 .text          0x000081f0        0x0 PduR_Dcm.o
 .text          0x000081f0        0x0 PduR_SoAd.o
 .text          0x000081f0        0x0 PduR_Routing.o
 .text          0x000081f0        0x0 PduR.o
 .text          0x000081f0        0x0 IoHwAb_Digital.o
 .text          0x000081f0        0x0 IoHwAb_Analog.o
 .text          0x000081f0        0x0 IoHwAb_Pwm.o
 .text          0x000081f0        0x0 ramlog.o
 .text          0x000081f0        0x0 cirq_buffer.o
 .text          0x000081f0        0x0 clib_port.o
 .text          0x000081f0        0x0 clib.o
 .text          0x000081f0        0x0 printf.o
 .text          0x000081f0        0x0 xtoa.o
 .text          0x000081f0        0x0 Can_PBcfg.o
 .text          0x000081f0        0x0 Pwm.o
 .text          0x000081f0      0x114 /opt/CodeSourcery/Sourcery_CodeBench_Lite_for_ARM_EABI/bin/../lib/gcc/arm-none-eabi/4.7.3/libgcc.a(_udivsi3.o)
                0x000081f0                __udivsi3
                0x000081f0                __aeabi_uidiv
                0x000082e4                __aeabi_uidivmod
 *fill*         0x00008304        0xc 
 .text          0x00008310      0x148 /opt/CodeSourcery/Sourcery_CodeBench_Lite_for_ARM_EABI/bin/../lib/gcc/arm-none-eabi/4.7.3/libgcc.a(_divsi3.o)
                0x00008310                __aeabi_idiv
                0x00008310                __divsi3
                0x00008438                __aeabi_idivmod
 *fill*         0x00008458        0x8 
 .text          0x00008460        0x4 /opt/CodeSourcery/Sourcery_CodeBench_Lite_for_ARM_EABI/bin/../lib/gcc/arm-none-eabi/4.7.3/libgcc.a(_dvmd_tls.o)
                0x00008460                __aeabi_ldiv0
                0x00008460                __aeabi_idiv0
 *fill*         0x00008464        0xc 
 .text          0x00008470      0x41c /opt/CodeSourcery/Sourcery_CodeBench_Lite_for_ARM_EABI/bin/../lib/gcc/arm-none-eabi/4.7.3/libgcc.a(_arm_addsubdf3.o)
                0x00008470                __aeabi_drsub
                0x00008478                __aeabi_dsub
                0x00008478                __subdf3
                0x0000847c                __adddf3
                0x0000847c                __aeabi_dadd
                0x0000878c                __aeabi_ui2d
                0x0000878c                __floatunsidf
                0x000087b0                __floatsidf
                0x000087b0                __aeabi_i2d
                0x000087d8                __extendsfdf2
                0x000087d8                __aeabi_f2d
                0x00008818                __aeabi_ul2d
                0x00008818                __floatundidf
                0x0000882c                __floatdidf
                0x0000882c                __aeabi_l2d
 *fill*         0x0000888c        0x4 
 .text          0x00008890      0x49c /opt/CodeSourcery/Sourcery_CodeBench_Lite_for_ARM_EABI/bin/../lib/gcc/arm-none-eabi/4.7.3/libgcc.a(_arm_muldivdf3.o)
                0x00008890                __aeabi_dmul
                0x00008890                __muldf3
                0x00008b20                __aeabi_ddiv
                0x00008b20                __divdf3
 *fill*         0x00008d2c        0x4 
 .text          0x00008d30       0x5c /opt/CodeSourcery/Sourcery_CodeBench_Lite_for_ARM_EABI/bin/../lib/gcc/arm-none-eabi/4.7.3/libgcc.a(_arm_fixdfsi.o)
                0x00008d30                __fixdfsi
                0x00008d30                __aeabi_d2iz
 *fill*         0x00008d8c        0x4 
 .text          0x00008d90       0x54 /opt/CodeSourcery/Sourcery_CodeBench_Lite_for_ARM_EABI/bin/../lib/gcc/arm-none-eabi/4.7.3/libgcc.a(_arm_fixunsdfsi.o)
                0x00008d90                __fixunsdfsi
                0x00008d90                __aeabi_d2uiz
 *fill*         0x00008de4        0xc 
 .text          0x00008df0       0xa0 /opt/CodeSourcery/Sourcery_CodeBench_Lite_for_ARM_EABI/bin/../lib/gcc/arm-none-eabi/4.7.3/libgcc.a(_arm_truncdfsf2.o)
                0x00008df0                __aeabi_d2f
                0x00008df0                __truncdfsf2
 .text          0x00008e90      0x2ac /opt/CodeSourcery/Sourcery_CodeBench_Lite_for_ARM_EABI/bin/../lib/gcc/arm-none-eabi/4.7.3/libgcc.a(_arm_addsubsf3.o)
                0x00008e90                __aeabi_frsub
                0x00008e98                __subsf3
                0x00008e98                __aeabi_fsub
                0x00008e9c                __aeabi_fadd
                0x00008e9c                __addsf3
                0x00009058                __aeabi_ui2f
                0x00009058                __floatunsisf
                0x00009060                __aeabi_i2f
                0x00009060                __floatsisf
                0x00009080                __floatundisf
                0x00009080                __aeabi_ul2f
                0x00009090                __floatdisf
                0x00009090                __aeabi_l2f
 *fill*         0x0000913c        0x4 
 .text          0x00009140      0x2f8 /opt/CodeSourcery/Sourcery_CodeBench_Lite_for_ARM_EABI/bin/../lib/gcc/arm-none-eabi/4.7.3/libgcc.a(_arm_muldivsf3.o)
                0x00009140                __mulsf3
                0x00009140                __aeabi_fmul
                0x000092d8                __divsf3
                0x000092d8                __aeabi_fdiv
 *fill*         0x00009438        0x8 
 .text          0x00009440       0x5c /opt/CodeSourcery/Sourcery_CodeBench_Lite_for_ARM_EABI/bin/../lib/gcc/arm-none-eabi/4.7.3/libgcc.a(_arm_fixsfsi.o)
                0x00009440                __fixsfsi
                0x00009440                __aeabi_f2iz
 *fill*         0x0000949c        0x4 
 .text          0x000094a0       0x54 /opt/CodeSourcery/Sourcery_CodeBench_Lite_for_ARM_EABI/bin/../lib/gcc/arm-none-eabi/4.7.3/libgcc.a(_arm_fixunssfsi.o)
                0x000094a0                __aeabi_f2uiz
                0x000094a0                __fixunssfsi
 *fill*         0x000094f4        0xc 
 .text          0x00009500       0x14 /opt/CodeSourcery/Sourcery_CodeBench_Lite_for_ARM_EABI/bin/../lib/gcc/arm-none-eabi/4.7.3/../../../../arm-none-eabi/lib/libc.a(lib_a-abort.o)
                0x00009500                abort
 *fill*         0x00009514        0xc 
 .text          0x00009520       0x38 /opt/CodeSourcery/Sourcery_CodeBench_Lite_for_ARM_EABI/bin/../lib/gcc/arm-none-eabi/4.7.3/../../../../arm-none-eabi/lib/libc.a(lib_a-fileno.o)
                0x00009520                fileno
 *fill*         0x00009558        0x8 
 .text          0x00009560      0x2c4 /opt/CodeSourcery/Sourcery_CodeBench_Lite_for_ARM_EABI/bin/../lib/gcc/arm-none-eabi/4.7.3/../../../../arm-none-eabi/lib/libc.a(lib_a-findfp.o)
                0x00009570                _cleanup_r
                0x00009604                __sfmoreglue
                0x0000964c                _cleanup
                0x0000965c                __sinit
                0x000096d4                __sfp
                0x000097cc                __sfp_lock_acquire
                0x000097d0                __sfp_lock_release
                0x000097d4                __sinit_lock_acquire
                0x000097d8                __sinit_lock_release
                0x000097dc                __fp_lock_all
                0x00009800                __fp_unlock_all
 *fill*         0x00009824        0xc 
 .text          0x00009830       0xfc /opt/CodeSourcery/Sourcery_CodeBench_Lite_for_ARM_EABI/bin/../lib/gcc/arm-none-eabi/4.7.3/../../../../arm-none-eabi/lib/libc.a(lib_a-fopen.o)
                0x00009830                _fopen_r
                0x00009910                fopen
 *fill*         0x0000992c        0x4 
 .text          0x00009930      0x4b0 /opt/CodeSourcery/Sourcery_CodeBench_Lite_for_ARM_EABI/bin/../lib/gcc/arm-none-eabi/4.7.3/../../../../arm-none-eabi/lib/libc.a(lib_a-fseek.o)
                0x00009930                _fseek_r
                0x00009db4                fseek
 .text          0x00009de0       0x40 /opt/CodeSourcery/Sourcery_CodeBench_Lite_for_ARM_EABI/bin/../lib/gcc/arm-none-eabi/4.7.3/../../../../arm-none-eabi/lib/libc.a(lib_a-fstatr.o)
                0x00009de0                _fstat_r
 .text          0x00009e20      0x114 /opt/CodeSourcery/Sourcery_CodeBench_Lite_for_ARM_EABI/bin/../lib/gcc/arm-none-eabi/4.7.3/../../../../arm-none-eabi/lib/libc.a(lib_a-fwalk.o)
                0x00009e20                _fwalk
                0x00009ea8                _fwalk_reent
 *fill*         0x00009f34        0xc 
 .text          0x00009f40        0x0 /opt/CodeSourcery/Sourcery_CodeBench_Lite_for_ARM_EABI/bin/../lib/gcc/arm-none-eabi/4.7.3/../../../../arm-none-eabi/lib/libc.a(lib_a-impure.o)
 .text          0x00009f40      0x15c /opt/CodeSourcery/Sourcery_CodeBench_Lite_for_ARM_EABI/bin/../lib/gcc/arm-none-eabi/4.7.3/../../../../arm-none-eabi/lib/libc.a(lib_a-makebuf.o)
                0x00009f40                __smakebuf_r
 *fill*         0x0000a09c        0x4 
 .text          0x0000a0a0       0x40 /opt/CodeSourcery/Sourcery_CodeBench_Lite_for_ARM_EABI/bin/../lib/gcc/arm-none-eabi/4.7.3/../../../../arm-none-eabi/lib/libc.a(lib_a-malloc.o)
                0x0000a0a0                malloc
                0x0000a0c0                free
 .text          0x0000a0e0      0x71c /opt/CodeSourcery/Sourcery_CodeBench_Lite_for_ARM_EABI/bin/../lib/gcc/arm-none-eabi/4.7.3/../../../../arm-none-eabi/lib/libc.a(lib_a-mallocr.o)
                0x0000a0e0                _malloc_r
 *fill*         0x0000a7fc        0x4 
 .text          0x0000a800       0xb4 /opt/CodeSourcery/Sourcery_CodeBench_Lite_for_ARM_EABI/bin/../lib/gcc/arm-none-eabi/4.7.3/../../../../arm-none-eabi/lib/libc.a(lib_a-memcmp.o)
                0x0000a800                memcmp
 *fill*         0x0000a8b4        0xc 
 .text          0x0000a8c0      0x20c /opt/CodeSourcery/Sourcery_CodeBench_Lite_for_ARM_EABI/bin/../lib/gcc/arm-none-eabi/4.7.3/../../../../arm-none-eabi/lib/libc.a(lib_a-memcpy.o)
                0x0000a8c0                memcpy
 *fill*         0x0000aacc        0x4 
 .text          0x0000aad0      0x134 /opt/CodeSourcery/Sourcery_CodeBench_Lite_for_ARM_EABI/bin/../lib/gcc/arm-none-eabi/4.7.3/../../../../arm-none-eabi/lib/libc.a(lib_a-memset.o)
                0x0000aad0                memset
 *fill*         0x0000ac04        0xc 
 .text          0x0000ac10        0x8 /opt/CodeSourcery/Sourcery_CodeBench_Lite_for_ARM_EABI/bin/../lib/gcc/arm-none-eabi/4.7.3/../../../../arm-none-eabi/lib/libc.a(lib_a-mlock.o)
                0x0000ac10                __malloc_lock
                0x0000ac14                __malloc_unlock
 *fill*         0x0000ac18        0x8 
 .text          0x0000ac20       0x44 /opt/CodeSourcery/Sourcery_CodeBench_Lite_for_ARM_EABI/bin/../lib/gcc/arm-none-eabi/4.7.3/../../../../arm-none-eabi/lib/libc.a(lib_a-openr.o)
                0x0000ac20                _open_r
 *fill*         0x0000ac64        0xc 
 .text          0x0000ac70      0x19c /opt/CodeSourcery/Sourcery_CodeBench_Lite_for_ARM_EABI/bin/../lib/gcc/arm-none-eabi/4.7.3/../../../../arm-none-eabi/lib/libc.a(lib_a-reent.o)
                0x0000ac70                cleanup_glue
                0x0000ac9c                _reclaim_reent
                0x0000ad98                _wrapup_reent
 *fill*         0x0000ae0c        0x4 
 .text          0x0000ae10      0x1cc /opt/CodeSourcery/Sourcery_CodeBench_Lite_for_ARM_EABI/bin/../lib/gcc/arm-none-eabi/4.7.3/../../../../arm-none-eabi/lib/libc.a(lib_a-refill.o)
                0x0000ae38                __srefill_r
 *fill*         0x0000afdc        0x4 
 .text          0x0000afe0       0x40 /opt/CodeSourcery/Sourcery_CodeBench_Lite_for_ARM_EABI/bin/../lib/gcc/arm-none-eabi/4.7.3/../../../../arm-none-eabi/lib/libc.a(lib_a-sbrkr.o)
                0x0000afe0                _sbrk_r
 .text          0x0000b020      0x24c /opt/CodeSourcery/Sourcery_CodeBench_Lite_for_ARM_EABI/bin/../lib/gcc/arm-none-eabi/4.7.3/../../../../arm-none-eabi/lib/libc.a(lib_a-signal.o)
                0x0000b020                _init_signal_r
                0x0000b080                _signal_r
                0x0000b0ec                _raise_r
                0x0000b184                __sigtramp_r
                0x0000b218                raise
                0x0000b22c                signal
                0x0000b248                _init_signal
                0x0000b258                __sigtramp
 *fill*         0x0000b26c        0x4 
 .text          0x0000b270       0x50 /opt/CodeSourcery/Sourcery_CodeBench_Lite_for_ARM_EABI/bin/../lib/gcc/arm-none-eabi/4.7.3/../../../../arm-none-eabi/lib/libc.a(lib_a-signalr.o)
                0x0000b270                _kill_r
                0x0000b2b0                _getpid_r
 .text          0x0000b2c0       0xdc /opt/CodeSourcery/Sourcery_CodeBench_Lite_for_ARM_EABI/bin/../lib/gcc/arm-none-eabi/4.7.3/../../../../arm-none-eabi/lib/libc.a(lib_a-stdio.o)
                0x0000b2c0                __sread
                0x0000b2f4                __seofread
                0x0000b2fc                __swrite
                0x0000b354                __sseek
                0x0000b388                __sclose
 *fill*         0x0000b39c        0x4 
 .text          0x0000b3a0      0x230 /opt/CodeSourcery/Sourcery_CodeBench_Lite_for_ARM_EABI/bin/../lib/gcc/arm-none-eabi/4.7.3/../../../../arm-none-eabi/lib/libc.a(lib_a-strcmp.o)
                0x0000b3a0                strcmp
 .text          0x0000b5d0       0xf0 /opt/CodeSourcery/Sourcery_CodeBench_Lite_for_ARM_EABI/bin/../lib/gcc/arm-none-eabi/4.7.3/../../../../arm-none-eabi/lib/libc.a(lib_a-strcpy.o)
                0x0000b5d0                strcpy
 .text          0x0000b6c0       0x60 /opt/CodeSourcery/Sourcery_CodeBench_Lite_for_ARM_EABI/bin/../lib/gcc/arm-none-eabi/4.7.3/../../../../arm-none-eabi/lib/libc.a(lib_a-strlen.o)
                0x0000b6c0                strlen
 .text          0x0000b720       0xc8 /opt/CodeSourcery/Sourcery_CodeBench_Lite_for_ARM_EABI/bin/../lib/gcc/arm-none-eabi/4.7.3/../../../../arm-none-eabi/lib/libc.a(lib_a-strncpy.o)
                0x0000b720                strncpy
 *fill*         0x0000b7e8        0x8 
 .text          0x0000b7f0      0x20c /opt/CodeSourcery/Sourcery_CodeBench_Lite_for_ARM_EABI/bin/../lib/gcc/arm-none-eabi/4.7.3/../../../../arm-none-eabi/lib/libc.a(lib_a-strtoul.o)
                0x0000b7f0                _strtoul_r
                0x0000b9d0                strtoul
 *fill*         0x0000b9fc        0x4 
 .text          0x0000ba00       0x30 /opt/CodeSourcery/Sourcery_CodeBench_Lite_for_ARM_EABI/bin/../lib/gcc/arm-none-eabi/4.7.3/../../../../arm-none-eabi/lib/libc.a(lib_a-sysread.o)
                0x0000ba00                read
 .text          0x0000ba30       0x30 /opt/CodeSourcery/Sourcery_CodeBench_Lite_for_ARM_EABI/bin/../lib/gcc/arm-none-eabi/4.7.3/../../../../arm-none-eabi/lib/libc.a(lib_a-syswrite.o)
                0x0000ba30                write
 .text          0x0000ba60       0x44 /opt/CodeSourcery/Sourcery_CodeBench_Lite_for_ARM_EABI/bin/../lib/gcc/arm-none-eabi/4.7.3/../../../../arm-none-eabi/lib/libc.a(lib_a-writer.o)
                0x0000ba60                _write_r
 *fill*         0x0000baa4        0xc 
 .text          0x0000bab0       0x3c /opt/CodeSourcery/Sourcery_CodeBench_Lite_for_ARM_EABI/bin/../lib/gcc/arm-none-eabi/4.7.3/../../../../arm-none-eabi/lib/libc.a(lib_a-closer.o)
                0x0000bab0                _close_r
 *fill*         0x0000baec        0x4 
 .text          0x0000baf0        0x0 /opt/CodeSourcery/Sourcery_CodeBench_Lite_for_ARM_EABI/bin/../lib/gcc/arm-none-eabi/4.7.3/../../../../arm-none-eabi/lib/libc.a(lib_a-ctype_.o)
 .text          0x0000baf0      0x10c /opt/CodeSourcery/Sourcery_CodeBench_Lite_for_ARM_EABI/bin/../lib/gcc/arm-none-eabi/4.7.3/../../../../arm-none-eabi/lib/libc.a(lib_a-fclose.o)
                0x0000baf0                _fclose_r
                0x0000bbe8                fclose
 *fill*         0x0000bbfc        0x4 
 .text          0x0000bc00      0x26c /opt/CodeSourcery/Sourcery_CodeBench_Lite_for_ARM_EABI/bin/../lib/gcc/arm-none-eabi/4.7.3/../../../../arm-none-eabi/lib/libc.a(lib_a-fflush.o)
                0x0000bc00                _fflush_r
                0x0000be2c                fflush
 *fill*         0x0000be6c        0x4 
 .text          0x0000be70       0xc0 /opt/CodeSourcery/Sourcery_CodeBench_Lite_for_ARM_EABI/bin/../lib/gcc/arm-none-eabi/4.7.3/../../../../arm-none-eabi/lib/libc.a(lib_a-flags.o)
                0x0000be70                __sflags
 .text          0x0000bf30      0x368 /opt/CodeSourcery/Sourcery_CodeBench_Lite_for_ARM_EABI/bin/../lib/gcc/arm-none-eabi/4.7.3/../../../../arm-none-eabi/lib/libc.a(lib_a-freer.o)
                0x0000bf30                _malloc_trim_r
                0x0000c02c                _free_r
 *fill*         0x0000c298        0x8 
 .text          0x0000c2a0       0x3c /opt/CodeSourcery/Sourcery_CodeBench_Lite_for_ARM_EABI/bin/../lib/gcc/arm-none-eabi/4.7.3/../../../../arm-none-eabi/lib/libc.a(lib_a-isattyr.o)
                0x0000c2a0                _isatty_r
 *fill*         0x0000c2dc        0x4 
 .text          0x0000c2e0       0x44 /opt/CodeSourcery/Sourcery_CodeBench_Lite_for_ARM_EABI/bin/../lib/gcc/arm-none-eabi/4.7.3/../../../../arm-none-eabi/lib/libc.a(lib_a-lseekr.o)
                0x0000c2e0                _lseek_r
 *fill*         0x0000c324        0xc 
 .text          0x0000c330       0x44 /opt/CodeSourcery/Sourcery_CodeBench_Lite_for_ARM_EABI/bin/../lib/gcc/arm-none-eabi/4.7.3/../../../../arm-none-eabi/lib/libc.a(lib_a-readr.o)
                0x0000c330                _read_r
 *(.text.*)
 *fill*         0x0000c374        0xc 
 .text.SensorTask
                0x0000c380       0x70 Rte.o
                0x0000c380                SensorTask
 .text.ActuatorTask
                0x0000c3f0       0xb8 Rte.o
                0x0000c3f0                ActuatorTask
 *fill*         0x0000c4a8        0x8 
 .text.RteTask  0x0000c4b0      0x1a8 Rte.o
                0x0000c4b0                RteTask
 *fill*         0x0000c658        0x8 
 .text.Rte_Start
                0x0000c660       0x2c Rte_Main.o
                0x0000c660                Rte_Start
 *fill*         0x0000c68c        0x4 
 .text.Rte_Stop
                0x0000c690       0x2c Rte_Main.o
                0x0000c690                Rte_Stop
 *fill*         0x0000c6bc        0x4 
 .text._Irq_Save
                0x0000c6c0       0x24 Rte_Internal.o
 *fill*         0x0000c6e4        0xc 
 .text._Irq_Restore
                0x0000c6f0       0x20 Rte_Internal.o
 .text.Rte_DataReceived_LedSWC_LedSWCProto_LedSwcReadDataFromPirteSwcPort1_dataInt32
                0x0000c710       0x18 Rte_Internal.o
 *fill*         0x0000c728        0x8 
 .text.Rte_DataReceived_MotorSWC_MotorSWCProto_MotorSwcReadDataFromPirteSwcPort1_dataInt32
                0x0000c730       0x18 Rte_Internal.o
 *fill*         0x0000c748        0x8 
 .text.Rte_DataReceived_PirteSWC_PirteSWCProto_PirteSwcReadDataFromAdcSwcPort5_dataInt32
                0x0000c750       0x18 Rte_Internal.o
 *fill*         0x0000c768        0x8 
 .text.Rte_DataReceived_PirteSWC_PirteSWCProto_PirteSwcReadDataFromFrontWheelSwcPort6_dataInt32
                0x0000c770       0x18 Rte_Internal.o
 *fill*         0x0000c788        0x8 
 .text.Rte_DataReceived_PirteSWC_PirteSWCProto_PirteSwcReadDataFromRearWheelSwcPort7_dataInt32
                0x0000c790       0x18 Rte_Internal.o
 *fill*         0x0000c7a8        0x8 
 .text.Rte_DataReceived_ServoSWC_ServoSWCProto_ServoSwcReadDataFromPirteSwcPort1_dataInt32
                0x0000c7b0       0x18 Rte_Internal.o
 *fill*         0x0000c7c8        0x8 
 .text.Rte_Call_AdcSWC_AdcSWCProto_AdcSwcReadDataFromAdcDriverPort2_Read
                0x0000c7d0       0x28 Rte_Internal.o
                0x0000c7d0                Rte_Call_AdcSWC_AdcSWCProto_AdcSwcReadDataFromAdcDriverPort2_Read
 *fill*         0x0000c7f8        0x8 
 .text.Rte_Write_AdcSWC_AdcSWCProto_AdcSwcWriteDataToPirteSwcPort1_dataInt32
                0x0000c800       0x44 Rte_Internal.o
                0x0000c800                Rte_Write_AdcSWC_AdcSWCProto_AdcSwcWriteDataToPirteSwcPort1_dataInt32
 *fill*         0x0000c844        0xc 
 .text.Rte_Call_FrontWheelSWC_FrontWheelSWCProto_FrontWheelSwcReadDataFromWheelSensorPort2_Read
                0x0000c850       0x28 Rte_Internal.o
                0x0000c850                Rte_Call_FrontWheelSWC_FrontWheelSWCProto_FrontWheelSwcReadDataFromWheelSensorPort2_Read
 *fill*         0x0000c878        0x8 
 .text.Rte_Write_FrontWheelSWC_FrontWheelSWCProto_FrontWheelSwcWriteDataToPirteSwcPort1_dataInt32
                0x0000c880       0x44 Rte_Internal.o
                0x0000c880                Rte_Write_FrontWheelSWC_FrontWheelSWCProto_FrontWheelSwcWriteDataToPirteSwcPort1_dataInt32
 *fill*         0x0000c8c4        0xc 
 .text.Rte_Call_IoHwAb_IoHwAbProto_IoHwReadAdcDataPort1_Read
                0x0000c8d0       0x2c Rte_Internal.o
                0x0000c8d0                Rte_Call_IoHwAb_IoHwAbProto_IoHwReadAdcDataPort1_Read
 *fill*         0x0000c8fc        0x4 
 .text.Rte_Call_IoHwAb_IoHwAbProto_IoHwReadFrontWheelDataPort2_Read
                0x0000c900       0x2c Rte_Internal.o
                0x0000c900                Rte_Call_IoHwAb_IoHwAbProto_IoHwReadFrontWheelDataPort2_Read
 *fill*         0x0000c92c        0x4 
 .text.Rte_Call_IoHwAb_IoHwAbProto_IoHwReadRearWheelDataPort3_Read
                0x0000c930       0x2c Rte_Internal.o
                0x0000c930                Rte_Call_IoHwAb_IoHwAbProto_IoHwReadRearWheelDataPort3_Read
 *fill*         0x0000c95c        0x4 
 .text.Rte_Call_IoHwAb_IoHwAbProto_IoHwWriteLedDataPort4_PinOpt
                0x0000c960       0x38 Rte_Internal.o
                0x0000c960                Rte_Call_IoHwAb_IoHwAbProto_IoHwWriteLedDataPort4_PinOpt
 *fill*         0x0000c998        0x8 
 .text.Rte_Call_IoHwAb_IoHwAbProto_IoHwWriteServoDutyCyclePort6_Write
                0x0000c9a0       0x2c Rte_Internal.o
                0x0000c9a0                Rte_Call_IoHwAb_IoHwAbProto_IoHwWriteServoDutyCyclePort6_Write
 *fill*         0x0000c9cc        0x4 
 .text.Rte_Call_IoHwAb_IoHwAbProto_IoHwWriteSpeedDutyCyclePort5_Write
                0x0000c9d0       0x2c Rte_Internal.o
                0x0000c9d0                Rte_Call_IoHwAb_IoHwAbProto_IoHwWriteSpeedDutyCyclePort5_Write
 *fill*         0x0000c9fc        0x4 
 .text.Rte_Read_LedSWC_LedSWCProto_LedSwcReadDataFromPirteSwcPort1_dataInt32
                0x0000ca00       0x4c Rte_Internal.o
                0x0000ca00                Rte_Read_LedSWC_LedSWCProto_LedSwcReadDataFromPirteSwcPort1_dataInt32
 *fill*         0x0000ca4c        0x4 
 .text.Rte_Call_LedSWC_LedSWCProto_LedSwcWriteDataToIoHwLedPort2_PinOpt
                0x0000ca50       0x30 Rte_Internal.o
                0x0000ca50                Rte_Call_LedSWC_LedSWCProto_LedSwcWriteDataToIoHwLedPort2_PinOpt
 .text.Rte_Read_MotorSWC_MotorSWCProto_MotorSwcReadDataFromPirteSwcPort1_dataInt32
                0x0000ca80       0x4c Rte_Internal.o
                0x0000ca80                Rte_Read_MotorSWC_MotorSWCProto_MotorSwcReadDataFromPirteSwcPort1_dataInt32
 *fill*         0x0000cacc        0x4 
 .text.Rte_Read_MotorSWC_MotorSWCProto_MotorSwcReadDataFromTCUPort2_SpeedSteer
                0x0000cad0       0x48 Rte_Internal.o
                0x0000cad0                Rte_Read_MotorSWC_MotorSWCProto_MotorSwcReadDataFromTCUPort2_SpeedSteer
 *fill*         0x0000cb18        0x8 
 .text.Rte_Read_MotorSWC_MotorSWCProto_MotorSwcReadDataFromTCUPort2_dataInt32
                0x0000cb20       0x68 Rte_Internal.o
                0x0000cb20                Rte_Read_MotorSWC_MotorSWCProto_MotorSwcReadDataFromTCUPort2_dataInt32
 *fill*         0x0000cb88        0x8 
 .text.Rte_Read_MotorSWC_MotorSWCProto_MotorSwcReadSelectDataFromPirteSwcPort4_dataInt32
                0x0000cb90       0x38 Rte_Internal.o
                0x0000cb90                Rte_Read_MotorSWC_MotorSWCProto_MotorSwcReadSelectDataFromPirteSwcPort4_dataInt32
 *fill*         0x0000cbc8        0x8 
 .text.Rte_Call_MotorSWC_MotorSWCProto_MotorSwcWriteDataToIoHwPwmPort3_Write
                0x0000cbd0       0x28 Rte_Internal.o
                0x0000cbd0                Rte_Call_MotorSWC_MotorSWCProto_MotorSwcWriteDataToIoHwPwmPort3_Write
 *fill*         0x0000cbf8        0x8 
 .text.Rte_Read_PirteSWC_PirteSWCProto_PirteSwcReadCommunicationDataFromTCUPort10_argInt32
                0x0000cc00       0x48 Rte_Internal.o
                0x0000cc00                Rte_Read_PirteSWC_PirteSWCProto_PirteSwcReadCommunicationDataFromTCUPort10_argInt32
 *fill*         0x0000cc48        0x8 
 .text.Rte_Read_PirteSWC_PirteSWCProto_PirteSwcReadCommunicationDataFromTCUPort10_pluginInstallationVCU
                0x0000cc50       0x2c Rte_Internal.o
                0x0000cc50                Rte_Read_PirteSWC_PirteSWCProto_PirteSwcReadCommunicationDataFromTCUPort10_pluginInstallationVCU
 *fill*         0x0000cc7c        0x4 
 .text.Rte_Read_PirteSWC_PirteSWCProto_PirteSwcReadCommunicationDataFromTCUPort10_pluginCommunicationTCUtoVCU
                0x0000cc80       0x48 Rte_Internal.o
                0x0000cc80                Rte_Read_PirteSWC_PirteSWCProto_PirteSwcReadCommunicationDataFromTCUPort10_pluginCommunicationTCUtoVCU
 *fill*         0x0000ccc8        0x8 
 .text.Rte_Read_PirteSWC_PirteSWCProto_PirteSwcReadDataFromAdcSwcPort5_dataInt32
                0x0000ccd0       0x4c Rte_Internal.o
                0x0000ccd0                Rte_Read_PirteSWC_PirteSWCProto_PirteSwcReadDataFromAdcSwcPort5_dataInt32
 *fill*         0x0000cd1c        0x4 
 .text.Rte_Read_PirteSWC_PirteSWCProto_PirteSwcReadDataFromFrontWheelSwcPort6_dataInt32
                0x0000cd20       0x4c Rte_Internal.o
                0x0000cd20                Rte_Read_PirteSWC_PirteSWCProto_PirteSwcReadDataFromFrontWheelSwcPort6_dataInt32
 *fill*         0x0000cd6c        0x4 
 .text.Rte_Read_PirteSWC_PirteSWCProto_PirteSwcReadDataFromRearWheelSwcPort7_dataInt32
                0x0000cd70       0x4c Rte_Internal.o
                0x0000cd70                Rte_Read_PirteSWC_PirteSWCProto_PirteSwcReadDataFromRearWheelSwcPort7_dataInt32
 *fill*         0x0000cdbc        0x4 
 .text.Rte_Read_PirteSWC_PirteSWCProto_PirteSwcReadDataFromSCUPort8_argInt32
                0x0000cdc0       0x48 Rte_Internal.o
                0x0000cdc0                Rte_Read_PirteSWC_PirteSWCProto_PirteSwcReadDataFromSCUPort8_argInt32
 *fill*         0x0000ce08        0x8 
 .text.Rte_Read_PirteSWC_PirteSWCProto_PirteSwcReadDataFromSCUPort8_pluginCommunicationSCUtoVCU
                0x0000ce10       0x48 Rte_Internal.o
                0x0000ce10                Rte_Read_PirteSWC_PirteSWCProto_PirteSwcReadDataFromSCUPort8_pluginCommunicationSCUtoVCU
 *fill*         0x0000ce58        0x8 
 .text.Rte_Read_PirteSWC_PirteSWCProto_PirteSwcReadInstallationDataFromTCUPort1_argInt32
                0x0000ce60       0x48 Rte_Internal.o
                0x0000ce60                Rte_Read_PirteSWC_PirteSWCProto_PirteSwcReadInstallationDataFromTCUPort1_argInt32
 *fill*         0x0000cea8        0x8 
 .text.Rte_Read_PirteSWC_PirteSWCProto_PirteSwcReadInstallationDataFromTCUPort1_pluginInstallationVCU
                0x0000ceb0       0x48 Rte_Internal.o
                0x0000ceb0                Rte_Read_PirteSWC_PirteSWCProto_PirteSwcReadInstallationDataFromTCUPort1_pluginInstallationVCU
 *fill*         0x0000cef8        0x8 
 .text.Rte_Read_PirteSWC_PirteSWCProto_PirteSwcReadInstallationDataFromTCUPort1_pluginCommunicationTCUtoVCU
                0x0000cf00       0x2c Rte_Internal.o
                0x0000cf00                Rte_Read_PirteSWC_PirteSWCProto_PirteSwcReadInstallationDataFromTCUPort1_pluginCommunicationTCUtoVCU
 *fill*         0x0000cf2c        0x4 
 .text.Rte_Read_PirteSWC_PirteSWCProto_PirteSwcReadPositionDataFromTCUPort12_argInt32
                0x0000cf30       0x48 Rte_Internal.o
                0x0000cf30                Rte_Read_PirteSWC_PirteSWCProto_PirteSwcReadPositionDataFromTCUPort12_argInt32
 *fill*         0x0000cf78        0x8 
 .text.Rte_Read_PirteSWC_PirteSWCProto_PirteSwcReadPositionDataFromTCUPort12_PositionData
                0x0000cf80       0x48 Rte_Internal.o
                0x0000cf80                Rte_Read_PirteSWC_PirteSWCProto_PirteSwcReadPositionDataFromTCUPort12_PositionData
 *fill*         0x0000cfc8        0x8 
 .text.Rte_Read_PirteSWC_PirteSWCProto_PirteSwcReadSpeedSteerDataFromTCUPort14_SpeedSteer
                0x0000cfd0       0x48 Rte_Internal.o
                0x0000cfd0                Rte_Read_PirteSWC_PirteSWCProto_PirteSwcReadSpeedSteerDataFromTCUPort14_SpeedSteer
 *fill*         0x0000d018        0x8 
 .text.Rte_Write_PirteSWC_PirteSWCProto_PirteSwcWriteAcknowledgementDataToTCUPort2_acknowledgementVCU
                0x0000d020       0x34 Rte_Internal.o
                0x0000d020                Rte_Write_PirteSWC_PirteSWCProto_PirteSwcWriteAcknowledgementDataToTCUPort2_acknowledgementVCU
 *fill*         0x0000d054        0xc 
 .text.Rte_Write_PirteSWC_PirteSWCProto_PirteSwcWriteAcknowledgementDataToTCUPort2_pluginCommunicationVCUtoTCU
                0x0000d060       0x24 Rte_Internal.o
                0x0000d060                Rte_Write_PirteSWC_PirteSWCProto_PirteSwcWriteAcknowledgementDataToTCUPort2_pluginCommunicationVCUtoTCU
 *fill*         0x0000d084        0xc 
 .text.Rte_Write_PirteSWC_PirteSWCProto_PirteSwcWriteCommunicationDataToTCUPort11_acknowledgementVCU
                0x0000d090       0x34 Rte_Internal.o
                0x0000d090                Rte_Write_PirteSWC_PirteSWCProto_PirteSwcWriteCommunicationDataToTCUPort11_acknowledgementVCU
 *fill*         0x0000d0c4        0xc 
 .text.Rte_Write_PirteSWC_PirteSWCProto_PirteSwcWriteCommunicationDataToTCUPort11_pluginCommunicationVCUtoTCU
                0x0000d0d0       0x2c Rte_Internal.o
                0x0000d0d0                Rte_Write_PirteSWC_PirteSWCProto_PirteSwcWriteCommunicationDataToTCUPort11_pluginCommunicationVCUtoTCU
 *fill*         0x0000d0fc        0x4 
 .text.Rte_Write_PirteSWC_PirteSWCProto_PirteSwcWriteDataToMotorSwcPort3_dataInt32
                0x0000d100       0x44 Rte_Internal.o
                0x0000d100                Rte_Write_PirteSWC_PirteSWCProto_PirteSwcWriteDataToMotorSwcPort3_dataInt32
 *fill*         0x0000d144        0xc 
 .text.Rte_Write_PirteSWC_PirteSWCProto_PirteSwcWriteDataToSCUPort9_argInt32
                0x0000d150       0x30 Rte_Internal.o
                0x0000d150                Rte_Write_PirteSWC_PirteSWCProto_PirteSwcWriteDataToSCUPort9_argInt32
 .text.Rte_Write_PirteSWC_PirteSWCProto_PirteSwcWriteDataToSCUPort9_pluginCommunicationVCUtoSCU
                0x0000d180       0x2c Rte_Internal.o
                0x0000d180                Rte_Write_PirteSWC_PirteSWCProto_PirteSwcWriteDataToSCUPort9_pluginCommunicationVCUtoSCU
 *fill*         0x0000d1ac        0x4 
 .text.Rte_Write_PirteSWC_PirteSWCProto_PirteSwcWriteDataToServoSwcPort4_dataInt32
                0x0000d1b0       0x44 Rte_Internal.o
                0x0000d1b0                Rte_Write_PirteSWC_PirteSWCProto_PirteSwcWriteDataToServoSwcPort4_dataInt32
 *fill*         0x0000d1f4        0xc 
 .text.Rte_Write_PirteSWC_PirteSWCProto_PirteSwcWriteLedPort13_dataInt32
                0x0000d200       0x44 Rte_Internal.o
                0x0000d200                Rte_Write_PirteSWC_PirteSWCProto_PirteSwcWriteLedPort13_dataInt32
 *fill*         0x0000d244        0xc 
 .text.Rte_Write_PirteSWC_PirteSWCProto_PirteSwcWriteSelectSpeedDataToMotorSwcPort15_dataInt32
                0x0000d250       0x30 Rte_Internal.o
                0x0000d250                Rte_Write_PirteSWC_PirteSWCProto_PirteSwcWriteSelectSpeedDataToMotorSwcPort15_dataInt32
 .text.Rte_Write_PirteSWC_PirteSWCProto_PirteSwcWriteSelectSteerDataToServoSwcPort16_dataInt32
                0x0000d280       0x30 Rte_Internal.o
                0x0000d280                Rte_Write_PirteSWC_PirteSWCProto_PirteSwcWriteSelectSteerDataToServoSwcPort16_dataInt32
 .text.Rte_Call_RearWheelSWC_RearWheelSWCProto_RearWheelSwcReadDataFromWheelSensorPort2_Read
                0x0000d2b0       0x28 Rte_Internal.o
                0x0000d2b0                Rte_Call_RearWheelSWC_RearWheelSWCProto_RearWheelSwcReadDataFromWheelSensorPort2_Read
 *fill*         0x0000d2d8        0x8 
 .text.Rte_Write_RearWheelSWC_RearWheelSWCProto_RearWheelSwcWriteDataToPirteSwcPort1_dataInt32
                0x0000d2e0       0x44 Rte_Internal.o
                0x0000d2e0                Rte_Write_RearWheelSWC_RearWheelSWCProto_RearWheelSwcWriteDataToPirteSwcPort1_dataInt32
 *fill*         0x0000d324        0xc 
 .text.Rte_Read_ServoSWC_ServoSWCProto_ServoSwcReadDataFromPirteSwcPort1_dataInt32
                0x0000d330       0x4c Rte_Internal.o
                0x0000d330                Rte_Read_ServoSWC_ServoSWCProto_ServoSwcReadDataFromPirteSwcPort1_dataInt32
 *fill*         0x0000d37c        0x4 
 .text.Rte_Read_ServoSWC_ServoSWCProto_ServoSwcReadDataFromTCUPort2_SpeedSteer
                0x0000d380       0x48 Rte_Internal.o
                0x0000d380                Rte_Read_ServoSWC_ServoSWCProto_ServoSwcReadDataFromTCUPort2_SpeedSteer
 *fill*         0x0000d3c8        0x8 
 .text.Rte_Read_ServoSWC_ServoSWCProto_ServoSwcReadDataFromTCUPort2_dataInt32
                0x0000d3d0       0x2c Rte_Internal.o
                0x0000d3d0                Rte_Read_ServoSWC_ServoSWCProto_ServoSwcReadDataFromTCUPort2_dataInt32
 *fill*         0x0000d3fc        0x4 
 .text.Rte_Read_ServoSWC_ServoSWCProto_ServoSwcReadSelectDataFromPirteSwcPort4_dataInt32
                0x0000d400       0x38 Rte_Internal.o
                0x0000d400                Rte_Read_ServoSWC_ServoSWCProto_ServoSwcReadSelectDataFromPirteSwcPort4_dataInt32
 *fill*         0x0000d438        0x8 
 .text.Rte_Call_ServoSWC_ServoSWCProto_ServoSwcWriteDataToIoHwPwmPort3_Write
                0x0000d440       0x28 Rte_Internal.o
                0x0000d440                Rte_Call_ServoSWC_ServoSWCProto_ServoSwcWriteDataToIoHwPwmPort3_Write
 *fill*         0x0000d468        0x8 
 .text.Rte_AdcSWCProto_AdcSensorWriteRunnable
                0x0000d470       0x24 Rte_AdcSWC.o
                0x0000d470                Rte_AdcSWCProto_AdcSensorWriteRunnable
 *fill*         0x0000d494        0xc 
 .text.Rte_AdcSWCProto_AdcSensorReadRunnable
                0x0000d4a0       0x10 Rte_AdcSWC.o
                0x0000d4a0                Rte_AdcSWCProto_AdcSensorReadRunnable
 .text.Rte_FrontWheelSWCProto_FrontWheelSensorWriteRunnable
                0x0000d4b0       0x24 Rte_FrontWheelSWC.o
                0x0000d4b0                Rte_FrontWheelSWCProto_FrontWheelSensorWriteRunnable
 *fill*         0x0000d4d4        0xc 
 .text.Rte_FrontWheelSWCProto_FrontWheelSensorReadRunnable
                0x0000d4e0       0x10 Rte_FrontWheelSWC.o
                0x0000d4e0                Rte_FrontWheelSWCProto_FrontWheelSensorReadRunnable
 .text.Rte_IoHwAbProto_IoHw_Read_AdcSensor
                0x0000d4f0       0x38 Rte_IoHwAb.o
                0x0000d4f0                Rte_IoHwAbProto_IoHw_Read_AdcSensor
 *fill*         0x0000d528        0x8 
 .text.Rte_IoHwAbProto_IoHw_Read_FrontWheelSensor
                0x0000d530       0x38 Rte_IoHwAb.o
                0x0000d530                Rte_IoHwAbProto_IoHw_Read_FrontWheelSensor
 *fill*         0x0000d568        0x8 
 .text.Rte_IoHwAbProto_IoHw_Read_RearWheelSensor
                0x0000d570       0x38 Rte_IoHwAb.o
                0x0000d570                Rte_IoHwAbProto_IoHw_Read_RearWheelSensor
 *fill*         0x0000d5a8        0x8 
 .text.Rte_IoHwAbProto_IoHw_Write_Led
                0x0000d5b0       0x50 Rte_IoHwAb.o
                0x0000d5b0                Rte_IoHwAbProto_IoHw_Write_Led
 .text.Rte_IoHwAbProto_IoHw_WriteSpeed_DutyCycle
                0x0000d600       0x40 Rte_IoHwAb.o
                0x0000d600                Rte_IoHwAbProto_IoHw_WriteSpeed_DutyCycle
 .text.Rte_IoHwAbProto_IoHw_WriteServo_DutyCycle
                0x0000d640       0x40 Rte_IoHwAb.o
                0x0000d640                Rte_IoHwAbProto_IoHw_WriteServo_DutyCycle
 .text.Rte_LedSWCProto_LedControlRunnable
                0x0000d680       0x1c Rte_LedSWC.o
                0x0000d680                Rte_LedSWCProto_LedControlRunnable
 *fill*         0x0000d69c        0x4 
 .text.Rte_MotorSWCProto_MotorControlRunnable
                0x0000d6a0       0x28 Rte_MotorSWC.o
                0x0000d6a0                Rte_MotorSWCProto_MotorControlRunnable
 *fill*         0x0000d6c8        0x8 
 .text.Rte_PirteSWCProto_Pirte_ReadInstallationDataFromTCU_Runnable
                0x0000d6d0       0x1c Rte_PirteSWC.o
                0x0000d6d0                Rte_PirteSWCProto_Pirte_ReadInstallationDataFromTCU_Runnable
 *fill*         0x0000d6ec        0x4 
 .text.Rte_PirteSWCProto_Pirte_WriteAcknowledgementDataToTCU_Runnable
                0x0000d6f0       0x24 Rte_PirteSWC.o
                0x0000d6f0                Rte_PirteSWCProto_Pirte_WriteAcknowledgementDataToTCU_Runnable
 *fill*         0x0000d714        0xc 
 .text.Rte_PirteSWCProto_Pirte_ReadCommunicationDataFromTCU_Runnable
                0x0000d720       0x1c Rte_PirteSWC.o
                0x0000d720                Rte_PirteSWCProto_Pirte_ReadCommunicationDataFromTCU_Runnable
 *fill*         0x0000d73c        0x4 
 .text.Rte_PirteSWCProto_Pirte_WriteCommunicationDataFromTCU_Runnable
                0x0000d740       0x1c Rte_PirteSWC.o
                0x0000d740                Rte_PirteSWCProto_Pirte_WriteCommunicationDataFromTCU_Runnable
 *fill*         0x0000d75c        0x4 
 .text.Rte_PirteSWCProto_Pirte_WriteDataToMotor_Runnable
                0x0000d760       0x24 Rte_PirteSWC.o
                0x0000d760                Rte_PirteSWCProto_Pirte_WriteDataToMotor_Runnable
 *fill*         0x0000d784        0xc 
 .text.Rte_PirteSWCProto_Pirte_WriteDataToServo_Runnable
                0x0000d790       0x24 Rte_PirteSWC.o
                0x0000d790                Rte_PirteSWCProto_Pirte_WriteDataToServo_Runnable
 *fill*         0x0000d7b4        0xc 
 .text.Rte_PirteSWCProto_Pirte_ReadDataFromAdc_Runnable
                0x0000d7c0       0x1c Rte_PirteSWC.o
                0x0000d7c0                Rte_PirteSWCProto_Pirte_ReadDataFromAdc_Runnable
 *fill*         0x0000d7dc        0x4 
 .text.Rte_PirteSWCProto_Pirte_ReadDataFromFrontWheel_Runnable
                0x0000d7e0       0x1c Rte_PirteSWC.o
                0x0000d7e0                Rte_PirteSWCProto_Pirte_ReadDataFromFrontWheel_Runnable
 *fill*         0x0000d7fc        0x4 
 .text.Rte_PirteSWCProto_Pirte_ReadDataFromRearWheel_Runnable
                0x0000d800       0x1c Rte_PirteSWC.o
                0x0000d800                Rte_PirteSWCProto_Pirte_ReadDataFromRearWheel_Runnable
 *fill*         0x0000d81c        0x4 
 .text.Rte_PirteSWCProto_Pirte_ReadDataFromSCU_Runnable
                0x0000d820       0x1c Rte_PirteSWC.o
                0x0000d820                Rte_PirteSWCProto_Pirte_ReadDataFromSCU_Runnable
 *fill*         0x0000d83c        0x4 
 .text.Rte_PirteSWCProto_Pirte_WriteDataToSCU_Runnable
                0x0000d840       0x1c Rte_PirteSWC.o
                0x0000d840                Rte_PirteSWCProto_Pirte_WriteDataToSCU_Runnable
 *fill*         0x0000d85c        0x4 
 .text.Rte_PirteSWCProto_Pirte_ReadPositionData_Runnable
                0x0000d860       0x1c Rte_PirteSWC.o
                0x0000d860                Rte_PirteSWCProto_Pirte_ReadPositionData_Runnable
 *fill*         0x0000d87c        0x4 
 .text.Rte_PirteSWCProto_Pirte_WriteLedData_Runnable
                0x0000d880       0x24 Rte_PirteSWC.o
                0x0000d880                Rte_PirteSWCProto_Pirte_WriteLedData_Runnable
 *fill*         0x0000d8a4        0xc 
 .text.Rte_PirteSWCProto_Pirte_ReadSpeedSteerData_Runnable
                0x0000d8b0       0x14 Rte_PirteSWC.o
                0x0000d8b0                Rte_PirteSWCProto_Pirte_ReadSpeedSteerData_Runnable
 *fill*         0x0000d8c4        0xc 
 .text.Rte_RearWheelSWCProto_RearWheelSensorWriteRunnable
                0x0000d8d0       0x24 Rte_RearWheelSWC.o
                0x0000d8d0                Rte_RearWheelSWCProto_RearWheelSensorWriteRunnable
 *fill*         0x0000d8f4        0xc 
 .text.Rte_RearWheelSWCProto_RearWheelSensorReadRunnable
                0x0000d900       0x10 Rte_RearWheelSWC.o
                0x0000d900                Rte_RearWheelSWCProto_RearWheelSensorReadRunnable
 .text.Rte_ServoSWCProto_ServoControlRunnable
                0x0000d910       0x28 Rte_ServoSWC.o
                0x0000d910                Rte_ServoSWCProto_ServoControlRunnable
 *fill*         0x0000d938        0x8 
 .text.setBit   0x0000d940       0x68 /home/avenir/Documents/dev/eclipse_ws/moped/src/core/boards/Raspberry_Pi/config/simple_stdio.o
 *fill*         0x0000d9a8        0x8 
 .text.findFirstFreeBit
                0x0000d9b0       0xac /home/avenir/Documents/dev/eclipse_ws/moped/src/core/boards/Raspberry_Pi/config/simple_stdio.o
 *fill*         0x0000da5c        0x4 
 .text.findIbit
                0x0000da60       0x94 /home/avenir/Documents/dev/eclipse_ws/moped/src/core/boards/Raspberry_Pi/config/simple_stdio.o
 *fill*         0x0000daf4        0xc 
 .text.getFileSize
                0x0000db00       0xcc /home/avenir/Documents/dev/eclipse_ws/moped/src/core/boards/Raspberry_Pi/config/simple_stdio.o
 *fill*         0x0000dbcc        0x4 
 .text.getFS    0x0000dbd0       0x20 /home/avenir/Documents/dev/eclipse_ws/moped/src/core/boards/Raspberry_Pi/config/simple_stdio.o
                0x0000dbd0                getFS
 .text.setSize  0x0000dbf0       0x74 /home/avenir/Documents/dev/eclipse_ws/moped/src/core/boards/Raspberry_Pi/config/simple_stdio.o
                0x0000dbf0                setSize
 *fill*         0x0000dc64        0xc 
 .text.stat     0x0000dc70       0x4c /home/avenir/Documents/dev/eclipse_ws/moped/src/core/boards/Raspberry_Pi/config/simple_stdio.o
                0x0000dc70                stat
 *fill*         0x0000dcbc        0x4 
 .text._fini    0x0000dcc0       0x14 /home/avenir/Documents/dev/eclipse_ws/moped/src/core/boards/Raspberry_Pi/config/simple_stdio.o
                0x0000dcc0                _fini
 *fill*         0x0000dcd4        0xc 
 .text.Rte_IRead_LedControlRunnable_LedSwcReadDataFromPirteSwcPort1_dataInt32
                0x0000dce0       0x2c Actuator_Led.o
 *fill*         0x0000dd0c        0x4 
 .text.Rte_Call_LedSwcWriteDataToIoHwLedPort2_PinOpt
                0x0000dd10       0x30 Actuator_Led.o
 .text.Led_Init
                0x0000dd40       0x30 Actuator_Led.o
 .text.LedControlRunnable
                0x0000dd70       0x7c Actuator_Led.o
                0x0000dd70                LedControlRunnable
 *fill*         0x0000ddec        0x4 
 .text.Rte_IRead_MotorControlRunnable_MotorSwcReadDataFromPirteSwcPort1_dataInt32
                0x0000ddf0       0x2c Actuator_MotorSpeed.o
 *fill*         0x0000de1c        0x4 
 .text.Rte_IRead_MotorControlRunnable_MotorSwcReadDataFromTCUPort2_SpeedSteer
                0x0000de20       0x28 Actuator_MotorSpeed.o
 *fill*         0x0000de48        0x8 
 .text.MotorControlRunnable
                0x0000de50       0x74 Actuator_MotorSpeed.o
                0x0000de50                MotorControlRunnable
 *fill*         0x0000dec4        0xc 
 .text.Rte_IRead_ServoControlRunnable_ServoSwcReadDataFromPirteSwcPort1_dataInt32
                0x0000ded0       0x2c Actuator_ServoDirection.o
 *fill*         0x0000defc        0x4 
 .text.Rte_IRead_ServoControlRunnable_ServoSwcReadDataFromTCUPort2_SpeedSteer
                0x0000df00       0x28 Actuator_ServoDirection.o
 *fill*         0x0000df28        0x8 
 .text.ServoControlRunnable
                0x0000df30       0x7c Actuator_ServoDirection.o
                0x0000df30                ServoControlRunnable
 *fill*         0x0000dfac        0x4 
 .text.IoHwAb_Init
                0x0000dfb0       0x14 IoHwAb.o
                0x0000dfb0                IoHwAb_Init
 *fill*         0x0000dfc4        0xc 
 .text.IoHwAb_MainFunction
                0x0000dfd0       0x14 IoHwAb.o
                0x0000dfd0                IoHwAb_MainFunction
 *fill*         0x0000dfe4        0xc 
 .text.output   0x0000dff0       0x20 java.o
                0x0000dff0                output
 .text.autosarFetchByte
                0x0000e010       0xb4 java.o
                0x0000e010                autosarFetchByte
 *fill*         0x0000e0c4        0xc 
 .text.autosarSendAckByte
                0x0000e0d0       0x40 java.o
                0x0000e0d0                autosarSendAckByte
 .text.autosarSendPackageData
                0x0000e110       0x8c java.o
                0x0000e110                autosarSendPackageData
 *fill*         0x0000e19c        0x4 
 .text.autosarFetchNewData
                0x0000e1a0      0x244 java.o
                0x0000e1a0                autosarFetchNewData
 *fill*         0x0000e3e4        0xc 
 .text.autosarCheckIfNewPackage
                0x0000e3f0       0x44 java.o
                0x0000e3f0                autosarCheckIfNewPackage
 *fill*         0x0000e434        0xc 
 .text.autosarGetLengthPackage
                0x0000e440       0x24 java.o
                0x0000e440                autosarGetLengthPackage
 *fill*         0x0000e464        0xc 
 .text.autosarGetReadStartIndex
                0x0000e470       0x24 java.o
                0x0000e470                autosarGetReadStartIndex
 *fill*         0x0000e494        0xc 
 .text.autosarGetReadRearIndex
                0x0000e4a0       0x24 java.o
                0x0000e4a0                autosarGetReadRearIndex
 *fill*         0x0000e4c4        0xc 
 .text.autosarSendSpeedPwmData
                0x0000e4d0       0x30 java.o
                0x0000e4d0                autosarSendSpeedPwmData
 .text.autosarSendSteerPwmData
                0x0000e500       0x30 java.o
                0x0000e500                autosarSendSteerPwmData
 .text.autosarFetchFrontWheelSpeed
                0x0000e530       0x18 java.o
                0x0000e530                autosarFetchFrontWheelSpeed
 *fill*         0x0000e548        0x8 
 .text.autosarFetchSteer
                0x0000e550       0x1c java.o
                0x0000e550                autosarFetchSteer
 *fill*         0x0000e56c        0x4 
 .text.autosarFetchBackWheelSpeed
                0x0000e570       0x18 java.o
                0x0000e570                autosarFetchBackWheelSpeed
 *fill*         0x0000e588        0x8 
 .text.autosarFetchAdcData
                0x0000e590       0xb8 java.o
                0x0000e590                autosarFetchAdcData
 *fill*         0x0000e648        0x8 
 .text.autosarReadPosition
                0x0000e650       0x30 java.o
                0x0000e650                autosarReadPosition
 .text.autosarReadPluginDataSizeFromSCU
                0x0000e680       0x24 java.o
                0x0000e680                autosarReadPluginDataSizeFromSCU
 *fill*         0x0000e6a4        0xc 
 .text.autosarReadPluginDataByteFromSCU
                0x0000e6b0       0x38 java.o
                0x0000e6b0                autosarReadPluginDataByteFromSCU
 *fill*         0x0000e6e8        0x8 
 .text.autosarResetPluginDataSizeFromSCU
                0x0000e6f0       0x24 java.o
                0x0000e6f0                autosarResetPluginDataSizeFromSCU
 *fill*         0x0000e714        0xc 
 .text.autosarSetLED
                0x0000e720       0x84 java.o
                0x0000e720                autosarSetLED
 *fill*         0x0000e7a4        0xc 
 .text.autosarSetSpeedWithSelector
                0x0000e7b0       0x34 java.o
                0x0000e7b0                autosarSetSpeedWithSelector
 *fill*         0x0000e7e4        0xc 
 .text.autosarSetSteerWithSelector
                0x0000e7f0       0x34 java.o
                0x0000e7f0                autosarSetSteerWithSelector
 *fill*         0x0000e824        0xc 
 .text.autosarReadPluginDataSizeFromTCU
                0x0000e830       0x24 java.o
                0x0000e830                autosarReadPluginDataSizeFromTCU
 *fill*         0x0000e854        0xc 
 .text.autosarReadPluginDataByteFromTCU
                0x0000e860       0x38 java.o
                0x0000e860                autosarReadPluginDataByteFromTCU
 *fill*         0x0000e898        0x8 
 .text.autosarResetPluginDataSizeFromTCU
                0x0000e8a0       0x24 java.o
                0x0000e8a0                autosarResetPluginDataSizeFromTCU
 *fill*         0x0000e8c4        0xc 
 .text.autosarFetchSpeedFromPirte
                0x0000e8d0       0x1c java.o
                0x0000e8d0                autosarFetchSpeedFromPirte
 *fill*         0x0000e8ec        0x4 
 .text.autosarFetchSteerFromPirte
                0x0000e8f0       0x1c java.o
                0x0000e8f0                autosarFetchSteerFromPirte
 *fill*         0x0000e90c        0x4 
 .text.autosarSetSelect
                0x0000e910       0x2c java.o
                0x0000e910                autosarSetSelect
 *fill*         0x0000e93c        0x4 
 .text.autosarReadUltrasonicData
                0x0000e940       0x1c java.o
                0x0000e940                autosarReadUltrasonicData
 *fill*         0x0000e95c        0x4 
 .text.autosarWritePluginData2VCU
                0x0000e960       0x20 java.o
                0x0000e960                autosarWritePluginData2VCU
 .text.autosarReadIMUPart1
                0x0000e980       0x24 java.o
                0x0000e980                autosarReadIMUPart1
 *fill*         0x0000e9a4        0xc 
 .text.autosarReadIMUPart2
                0x0000e9b0       0x24 java.o
                0x0000e9b0                autosarReadIMUPart2
 *fill*         0x0000e9d4        0xc 
 .text.SquawkTask
                0x0000e9e0       0x28 main.o
                0x0000e9e0                SquawkTask
 *fill*         0x0000ea08        0x8 
 .text.StartupTask
                0x0000ea10       0x84 main.o
                0x0000ea10                StartupTask
 *fill*         0x0000ea94        0xc 
 .text.CanFunctionTask
                0x0000eaa0       0x58 main.o
                0x0000eaa0                CanFunctionTask
 *fill*         0x0000eaf8        0x8 
 .text.OsIdle   0x0000eb00        0xc main.o
                0x0000eb00                OsIdle
 *fill*         0x0000eb0c        0x4 
 .text.Rte_IWrite_AdcSensorWriteRunnable_AdcSwcWriteDataToPirteSwcPort1_dataInt32
                0x0000eb10       0x34 Sensor_Adc.o
 *fill*         0x0000eb44        0xc 
 .text.Rte_Call_AdcSwcReadDataFromAdcDriverPort2_Read
                0x0000eb50       0x28 Sensor_Adc.o
 *fill*         0x0000eb78        0x8 
 .text.AdcSensorReadRunnable
                0x0000eb80       0x18 Sensor_Adc.o
                0x0000eb80                AdcSensorReadRunnable
 *fill*         0x0000eb98        0x8 
 .text.AdcSensorWriteRunnable
                0x0000eba0       0x20 Sensor_Adc.o
                0x0000eba0                AdcSensorWriteRunnable
 .text.Rte_IWrite_FrontWheelSensorWriteRunnable_FrontWheelSwcWriteDataToPirteSwcPort1_dataInt32
                0x0000ebc0       0x34 Sensor_FrontWheel.o
 *fill*         0x0000ebf4        0xc 
 .text.Rte_Call_FrontWheelSwcReadDataFromWheelSensorPort2_Read
                0x0000ec00       0x28 Sensor_FrontWheel.o
 *fill*         0x0000ec28        0x8 
 .text.FrontWheelSensorReadRunnable
                0x0000ec30       0x18 Sensor_FrontWheel.o
                0x0000ec30                FrontWheelSensorReadRunnable
 *fill*         0x0000ec48        0x8 
 .text.FrontWheelSensorWriteRunnable
                0x0000ec50       0x20 Sensor_FrontWheel.o
                0x0000ec50                FrontWheelSensorWriteRunnable
 .text.Rte_IWrite_RearWheelSensorWriteRunnable_RearWheelSwcWriteDataToPirteSwcPort1_dataInt32
                0x0000ec70       0x34 Sensor_RearWheel.o
 *fill*         0x0000eca4        0xc 
 .text.Rte_Call_RearWheelSwcReadDataFromWheelSensorPort2_Read
                0x0000ecb0       0x28 Sensor_RearWheel.o
 *fill*         0x0000ecd8        0x8 
 .text.RearWheelSensorReadRunnable
                0x0000ece0       0x18 Sensor_RearWheel.o
                0x0000ece0                RearWheelSensorReadRunnable
 *fill*         0x0000ecf8        0x8 
 .text.RearWheelSensorWriteRunnable
                0x0000ed00       0x20 Sensor_RearWheel.o
                0x0000ed00                RearWheelSensorWriteRunnable
 .text.OSErrorGetServiceId
                0x0000ed20       0x24 system_hooks.o
 *fill*         0x0000ed44        0xc 
 .text.ProtectionHook
                0x0000ed50       0x30 system_hooks.o
                0x0000ed50                ProtectionHook
 .text.StartupHook
                0x0000ed80       0x1c system_hooks.o
                0x0000ed80                StartupHook
 *fill*         0x0000ed9c        0x4 
 .text.ShutdownHook
                0x0000eda0       0x18 system_hooks.o
                0x0000eda0                ShutdownHook
 *fill*         0x0000edb8        0x8 
 .text.ErrorHook
                0x0000edc0      0x1a4 system_hooks.o
                0x0000edc0                ErrorHook
 *fill*         0x0000ef64        0xc 
 .text.PreTaskHook
                0x0000ef70       0x80 system_hooks.o
                0x0000ef70                PreTaskHook
 .text.PostTaskHook
                0x0000eff0       0x80 system_hooks.o
                0x0000eff0                PostTaskHook
 .text.Rte_IRead_Pirte_ReadInstallationDataFromTCU_Runnable_PirteSwcReadInstallationDataFromTCUPort1_pluginInstallationVCU
                0x0000f070       0x28 vcu_platform.o
 *fill*         0x0000f098        0x8 
 .text.Rte_IWrite_Pirte_WriteAcknowledgementDataToTCU_Runnable_PirteSwcWriteAcknowledgementDataToTCUPort2_acknowledgementVCU
                0x0000f0a0       0x38 vcu_platform.o
 *fill*         0x0000f0d8        0x8 
 .text.Rte_IRead_Pirte_ReadCommunicationDataFromTCU_Runnable_PirteSwcReadCommunicationDataFromTCUPort10_pluginCommunicationTCUtoVCU
                0x0000f0e0       0x28 vcu_platform.o
 *fill*         0x0000f108        0x8 
 .text.Rte_IWrite_Pirte_WriteCommunicationDataFromTCU_Runnable_PirteSwcWriteCommunicationDataToTCUPort11_pluginCommunicationVCUtoTCU
                0x0000f110       0x38 vcu_platform.o
 *fill*         0x0000f148        0x8 
 .text.Rte_IWrite_Pirte_WriteDataToMotor_Runnable_PirteSwcWriteDataToMotorSwcPort3_dataInt32
                0x0000f150       0x34 vcu_platform.o
 *fill*         0x0000f184        0xc 
 .text.Rte_IWrite_Pirte_WriteDataToServo_Runnable_PirteSwcWriteDataToServoSwcPort4_dataInt32
                0x0000f190       0x34 vcu_platform.o
 *fill*         0x0000f1c4        0xc 
 .text.Rte_IRead_Pirte_ReadDataFromAdc_Runnable_PirteSwcReadDataFromAdcSwcPort5_dataInt32
                0x0000f1d0       0x2c vcu_platform.o
 *fill*         0x0000f1fc        0x4 
 .text.Rte_IRead_Pirte_ReadDataFromFrontWheel_Runnable_PirteSwcReadDataFromFrontWheelSwcPort6_dataInt32
                0x0000f200       0x2c vcu_platform.o
 *fill*         0x0000f22c        0x4 
 .text.Rte_IRead_Pirte_ReadDataFromRearWheel_Runnable_PirteSwcReadDataFromRearWheelSwcPort7_dataInt32
                0x0000f230       0x2c vcu_platform.o
 *fill*         0x0000f25c        0x4 
 .text.Rte_IRead_Pirte_ReadDataFromSCU_Runnable_PirteSwcReadDataFromSCUPort8_pluginCommunicationSCUtoVCU
                0x0000f260       0x40 vcu_platform.o
 .text.Rte_IWrite_Pirte_WriteDataToSCU_Runnable_PirteSwcWriteDataToSCUPort9_pluginCommunicationVCUtoSCU
                0x0000f2a0       0x38 vcu_platform.o
 *fill*         0x0000f2d8        0x8 
 .text.Rte_IRead_Pirte_ReadPositionData_Runnable_PirteSwcReadPositionDataFromTCUPort12_PositionData
                0x0000f2e0       0x28 vcu_platform.o
 *fill*         0x0000f308        0x8 
 .text.Rte_IWrite_Pirte_WriteLedData_Runnable_PirteSwcWriteLedPort13_dataInt32
                0x0000f310       0x34 vcu_platform.o
 *fill*         0x0000f344        0xc 
 .text.Rte_IRead_Pirte_ReadSpeedSteerData_Runnable_PirteSwcReadSpeedSteerDataFromTCUPort14_SpeedSteer
                0x0000f350       0x28 vcu_platform.o
 *fill*         0x0000f378        0x8 
 .text.Can_Read_Single_Frame
                0x0000f380       0xfc vcu_platform.o
                0x0000f380                Can_Read_Single_Frame
 *fill*         0x0000f47c        0x4 
 .text.Can_Read_First_Frame
                0x0000f480      0x138 vcu_platform.o
                0x0000f480                Can_Read_First_Frame
 *fill*         0x0000f5b8        0x8 
 .text.Can_Read_Consecutive_Frame
                0x0000f5c0      0x16c vcu_platform.o
                0x0000f5c0                Can_Read_Consecutive_Frame
 *fill*         0x0000f72c        0x4 
 .text.Can_Send_Single_Frame
                0x0000f730      0x10c vcu_platform.o
                0x0000f730                Can_Send_Single_Frame
 *fill*         0x0000f83c        0x4 
 .text.Can_Send_First_Frame
                0x0000f840      0x178 vcu_platform.o
                0x0000f840                Can_Send_First_Frame
 *fill*         0x0000f9b8        0x8 
 .text.Can_Send_Consecutive_Frame
                0x0000f9c0      0x138 vcu_platform.o
                0x0000f9c0                Can_Send_Consecutive_Frame
 *fill*         0x0000faf8        0x8 
 .text.Can_Send_Package
                0x0000fb00      0x180 vcu_platform.o
                0x0000fb00                Can_Send_Package
 .text.Can_Read_Package
                0x0000fc80      0x110 vcu_platform.o
                0x0000fc80                Can_Read_Package
 .text.Pirte_ReadInstallationDataFromTCU_Runnable
                0x0000fd90      0x118 vcu_platform.o
                0x0000fd90                Pirte_ReadInstallationDataFromTCU_Runnable
 *fill*         0x0000fea8        0x8 
 .text.Pirte_WriteAcknowledgementDataToTCU_Runnable
                0x0000feb0       0x20 vcu_platform.o
                0x0000feb0                Pirte_WriteAcknowledgementDataToTCU_Runnable
 .text.Pirte_ReadCommunicationDataFromTCU_Runnable
                0x0000fed0       0xfc vcu_platform.o
                0x0000fed0                Pirte_ReadCommunicationDataFromTCU_Runnable
 *fill*         0x0000ffcc        0x4 
 .text.Pirte_WriteCommunicationDataFromTCU_Runnable
                0x0000ffd0      0x108 vcu_platform.o
                0x0000ffd0                Pirte_WriteCommunicationDataFromTCU_Runnable
 *fill*         0x000100d8        0x8 
 .text.Pirte_ReadDataFromSCU_Runnable
                0x000100e0      0x10c vcu_platform.o
                0x000100e0                Pirte_ReadDataFromSCU_Runnable
 *fill*         0x000101ec        0x4 
 .text.Pirte_WriteDataToSCU_Runnable
                0x000101f0      0x104 vcu_platform.o
                0x000101f0                Pirte_WriteDataToSCU_Runnable
 *fill*         0x000102f4        0xc 
 .text.Pirte_WriteDataToMotor_Runnable
                0x00010300       0x14 vcu_platform.o
                0x00010300                Pirte_WriteDataToMotor_Runnable
 *fill*         0x00010314        0xc 
 .text.Pirte_WriteDataToServo_Runnable
                0x00010320       0x14 vcu_platform.o
                0x00010320                Pirte_WriteDataToServo_Runnable
 *fill*         0x00010334        0xc 
 .text.Pirte_ReadDataFromAdc_Runnable
                0x00010340       0x24 vcu_platform.o
                0x00010340                Pirte_ReadDataFromAdc_Runnable
 *fill*         0x00010364        0xc 
 .text.Pirte_ReadDataFromFrontWheel_Runnable
                0x00010370       0x24 vcu_platform.o
                0x00010370                Pirte_ReadDataFromFrontWheel_Runnable
 *fill*         0x00010394        0xc 
 .text.Pirte_ReadDataFromRearWheel_Runnable
                0x000103a0       0x24 vcu_platform.o
                0x000103a0                Pirte_ReadDataFromRearWheel_Runnable
 *fill*         0x000103c4        0xc 
 .text.Pirte_ReadPositionData_Runnable
                0x000103d0      0x1d4 vcu_platform.o
                0x000103d0                Pirte_ReadPositionData_Runnable
 *fill*         0x000105a4        0xc 
 .text.Pirte_WriteLedData_Runnable
                0x000105b0       0x50 vcu_platform.o
                0x000105b0                Pirte_WriteLedData_Runnable
 .text.Pirte_ReadSpeedSteerData_Runnable
                0x00010600       0x44 vcu_platform.o
                0x00010600                Pirte_ReadSpeedSteerData_Runnable
 *fill*         0x00010644        0xc 
 .text.getFrontWheelSpeed
                0x00010650       0x2c vcu_platform.o
                0x00010650                getFrontWheelSpeed
 *fill*         0x0001067c        0x4 
 .text.getRearWheelSpeed
                0x00010680       0x2c vcu_platform.o
                0x00010680                getRearWheelSpeed
 *fill*         0x000106ac        0x4 
 .text.PirteWriteSpeedPwmData
                0x000106b0       0x38 vcu_platform.o
                0x000106b0                PirteWriteSpeedPwmData
 *fill*         0x000106e8        0x8 
 .text.PirteWriteSteerPwmData
                0x000106f0       0x38 vcu_platform.o
                0x000106f0                PirteWriteSteerPwmData
 *fill*         0x00010728        0x8 
 .text.readAdcDataFromPort
                0x00010730       0x24 vcu_platform.o
                0x00010730                readAdcDataFromPort
 *fill*         0x00010754        0xc 
 .text.readPositionFromPort
                0x00010760      0x104 vcu_platform.o
                0x00010760                readPositionFromPort
 *fill*         0x00010864        0xc 
 .text.Task1_off
                0x00010870       0x2c led.o
                0x00010870                Task1_off
 *fill*         0x0001089c        0x4 
 .text.Task1_on
                0x000108a0       0x28 led.o
                0x000108a0                Task1_on
 *fill*         0x000108c8        0x8 
 .text.Task2_off
                0x000108d0       0x2c led.o
                0x000108d0                Task2_off
 *fill*         0x000108fc        0x4 
 .text.Task2_on
                0x00010900       0x28 led.o
                0x00010900                Task2_on
 *fill*         0x00010928        0x8 
 .text.Task3_off
                0x00010930       0x2c led.o
                0x00010930                Task3_off
 *fill*         0x0001095c        0x4 
 .text.Task3_on
                0x00010960       0x28 led.o
                0x00010960                Task3_on
 *fill*         0x00010988        0x8 
 .text.Idle_off
                0x00010990       0x2c led.o
                0x00010990                Idle_off
 *fill*         0x000109bc        0x4 
 .text.Idle_on  0x000109c0       0x28 led.o
                0x000109c0                Idle_on
 *fill*         0x000109e8        0x8 
 .text.led_on   0x000109f0       0x28 led.o
                0x000109f0                led_on
 *fill*         0x00010a18        0x8 
 .text.led_off  0x00010a20       0x28 led.o
                0x00010a20                led_off
 *fill*         0x00010a48        0x8 
 .text.delay    0x00010a50       0x4c led.o
                0x00010a50                delay
 *fill*         0x00010a9c        0x4 
 .text.led_blink
                0x00010aa0       0x7c led.o
                0x00010aa0                led_blink
 *fill*         0x00010b1c        0x4 
 .text.led_asm  0x00010b20       0x88 led.o
                0x00010b20                led_asm
 *fill*         0x00010ba8        0x8 
 .text.bcm2835_SetWriteOnlyGpioReg
                0x00010bb0       0x58 bcm2835.o
 *fill*         0x00010c08        0x8 
 .text.bcm2835_GpioFnSel
                0x00010c10       0xc4 bcm2835.o
                0x00010c10                bcm2835_GpioFnSel
 *fill*         0x00010cd4        0xc 
 .text.bcm2835_SetBitsInMask
                0x00010ce0       0x68 bcm2835.o
                0x00010ce0                bcm2835_SetBitsInMask
 *fill*         0x00010d48        0x8 
 .text.bcm2835_SetGpioPin
                0x00010d50       0x28 bcm2835.o
                0x00010d50                bcm2835_SetGpioPin
 *fill*         0x00010d78        0x8 
 .text.bcm2835_ClearGpioPin
                0x00010d80       0x28 bcm2835.o
                0x00010d80                bcm2835_ClearGpioPin
 *fill*         0x00010da8        0x8 
 .text.bcm2835_ClearEventDetectPin
                0x00010db0       0x28 bcm2835.o
                0x00010db0                bcm2835_ClearEventDetectPin
 *fill*         0x00010dd8        0x8 
 .text.bcm2835_SetReadWriteGpioReg
                0x00010de0       0x70 bcm2835.o
                0x00010de0                bcm2835_SetReadWriteGpioReg
 .text.bcm2835_UnsetReadWriteGpioReg
                0x00010e50       0x74 bcm2835.o
                0x00010e50                bcm2835_UnsetReadWriteGpioReg
 *fill*         0x00010ec4        0xc 
 .text.bcm2835_ReadGpioPin
                0x00010ed0       0x7c bcm2835.o
                0x00010ed0                bcm2835_ReadGpioPin
 *fill*         0x00010f4c        0x4 
 .text.bcm2835_Sleep
                0x00010f50       0xb0 bcm2835.o
                0x00010f50                bcm2835_Sleep
 .text.bcm2835_GpioIsr
                0x00011000       0x5c bcm2835.o
                0x00011000                bcm2835_GpioIsr
 *fill*         0x0001105c        0x4 
 .text.bcm2835_mailbox_write
                0x00011060       0x54 bcm2835.o
 *fill*         0x000110b4        0xc 
 .text.bcm2835_mailbox_read
                0x000110c0       0x68 bcm2835.o
 *fill*         0x00011128        0x8 
 .text.bcm2835_get_power_mask
                0x00011130       0x20 bcm2835.o
 .text.bcm2835_set_power_mask
                0x00011150       0x2c bcm2835.o
 *fill*         0x0001117c        0x4 
 .text.bcm2835_SetPower
                0x00011180       0xc4 bcm2835.o
                0x00011180                bcm2835_SetPower
 *fill*         0x00011244        0xc 
 .text.Uart_Init
                0x00011250      0x104 Uart.o
                0x00011250                Uart_Init
 *fill*         0x00011354        0xc 
 .text.mini_uart_send
                0x00011360       0x48 Uart.o
                0x00011360                mini_uart_send
 *fill*         0x000113a8        0x8 
 .text.mini_uart_sendstr
                0x000113b0       0x5c Uart.o
                0x000113b0                mini_uart_sendstr
 *fill*         0x0001140c        0x4 
 .text.mini_uart_sendhex
                0x00011410       0xb4 Uart.o
                0x00011410                mini_uart_sendhex
 *fill*         0x000114c4        0xc 
 .text.mini_uart_recv
                0x000114d0       0x44 Uart.o
                0x000114d0                mini_uart_recv
 *fill*         0x00011514        0xc 
 .text.mini_uart_lcr
                0x00011520       0x38 Uart.o
                0x00011520                mini_uart_lcr
 *fill*         0x00011558        0x8 
 .text.Int_To_Chars
                0x00011560       0x90 Uart.o
                0x00011560                Int_To_Chars
 .text.Uart_Send_Int
                0x000115f0       0x6c Uart.o
                0x000115f0                Uart_Send_Int
 *fill*         0x0001165c        0x4 
 .text.Chars_To_Int
                0x00011660       0x8c Uart.o
                0x00011660                Chars_To_Int
 *fill*         0x000116ec        0x4 
 .text.mini_uart_sendDec
                0x000116f0       0x78 Uart.o
                0x000116f0                mini_uart_sendDec
 *fill*         0x00011768        0x8 
 .text.pi_printf
                0x00011770       0x4c Uart.o
                0x00011770                pi_printf
 *fill*         0x000117bc        0x4 
 .text.pi_print
                0x000117c0       0x68 Uart.o
                0x000117c0                pi_print
 *fill*         0x00011828        0x8 
 .text.SpeedSensor_Isr
                0x00011830       0x7c SpeedSensor.o
                0x00011830                SpeedSensor_Isr
 *fill*         0x000118ac        0x4 
 .text.SpeedSensor_IsValidWheel
                0x000118b0       0x4c SpeedSensor.o
 *fill*         0x000118fc        0x4 
 .text.SpeedSensor_Init
                0x00011900       0x6c SpeedSensor.o
                0x00011900                SpeedSensor_Init
 *fill*         0x0001196c        0x4 
 .text.Sensors_GetWheelPulse
                0x00011970       0x50 SpeedSensor.o
                0x00011970                Sensors_GetWheelPulse
 .text.Sensors_ResetWheelPulse
                0x000119c0       0x48 SpeedSensor.o
                0x000119c0                Sensors_ResetWheelPulse
 *fill*         0x00011a08        0x8 
 .text.Mcp3008_Read
                0x00011a10       0xc4 Mcp3008.o
                0x00011a10                Mcp3008_Read
 *fill*         0x00011ad4        0xc 
 .text.UltrasonicSensor_Init
                0x00011ae0       0x50 UltrasonicSensor.o
                0x00011ae0                UltrasonicSensor_Init
 .text.UltrasonicSensor_Read
                0x00011b30      0x134 UltrasonicSensor.o
                0x00011b30                UltrasonicSensor_Read
 *fill*         0x00011c64        0xc 
 .text.EcuM_Init
                0x00011c70      0x134 EcuM.o
                0x00011c70                EcuM_Init
 *fill*         0x00011da4        0xc 
 .text.EcuM_Shutdown
                0x00011db0       0x38 EcuM.o
                0x00011db0                EcuM_Shutdown
 *fill*         0x00011de8        0x8 
 .text.EcuM_SelectApplicationMode
                0x00011df0       0x34 EcuM.o
                0x00011df0                EcuM_SelectApplicationMode
 *fill*         0x00011e24        0xc 
 .text.EcuM_GetApplicationMode
                0x00011e30       0x38 EcuM.o
                0x00011e30                EcuM_GetApplicationMode
 *fill*         0x00011e68        0x8 
 .text.EcuM_SelectBootTarget
                0x00011e70       0x18 EcuM.o
                0x00011e70                EcuM_SelectBootTarget
 *fill*         0x00011e88        0x8 
 .text.EcuM_GetBootTarget
                0x00011e90       0x14 EcuM.o
                0x00011e90                EcuM_GetBootTarget
 *fill*         0x00011ea4        0xc 
 .text.EcuM_SelectShutdownTarget
                0x00011eb0       0x4c EcuM.o
                0x00011eb0                EcuM_SelectShutdownTarget
 *fill*         0x00011efc        0x4 
 .text.EcuM_GetShutdownTarget
                0x00011f00       0x4c EcuM.o
                0x00011f00                EcuM_GetShutdownTarget
 *fill*         0x00011f4c        0x4 
 .text.EcuM_SetWakeupEvent
                0x00011f50       0x88 EcuM.o
                0x00011f50                EcuM_SetWakeupEvent
 *fill*         0x00011fd8        0x8 
 .text.EcuM_ClearWakeupEvent
                0x00011fe0       0x64 EcuM.o
                0x00011fe0                EcuM_ClearWakeupEvent
 *fill*         0x00012044        0xc 
 .text.EcuM_GetPendingWakeupEvents
                0x00012050       0x24 EcuM.o
                0x00012050                EcuM_GetPendingWakeupEvents
 *fill*         0x00012074        0xc 
 .text.EcuM_GetValidatedWakeupEvents
                0x00012080       0x24 EcuM.o
                0x00012080                EcuM_GetValidatedWakeupEvents
 *fill*         0x000120a4        0xc 
 .text.EcuM_ValidateWakeupEvent
                0x000120b0       0x38 EcuM.o
                0x000120b0                EcuM_ValidateWakeupEvent
 *fill*         0x000120e8        0x8 
 .text.EcuM_StartupTwo
                0x000120f0       0x44 EcuM_Fixed.o
                0x000120f0                EcuM_StartupTwo
 *fill*         0x00012134        0xc 
 .text.EcuM_GetState
                0x00012140       0x38 EcuM_Fixed.o
                0x00012140                EcuM_GetState
 *fill*         0x00012178        0x8 
 .text.EcuM_RequestRUN
                0x00012180       0x64 EcuM_Fixed.o
                0x00012180                EcuM_RequestRUN
 *fill*         0x000121e4        0xc 
 .text.EcuM_ReleaseRUN
                0x000121f0       0x50 EcuM_Fixed.o
                0x000121f0                EcuM_ReleaseRUN
 .text.EcuM_KillAllRUNRequests
                0x00012240       0x3c EcuM_Fixed.o
                0x00012240                EcuM_KillAllRUNRequests
 *fill*         0x0001227c        0x4 
 .text.EcuM_RequestPOST_RUN
                0x00012280       0x64 EcuM_Fixed.o
                0x00012280                EcuM_RequestPOST_RUN
 *fill*         0x000122e4        0xc 
 .text.EcuM_ReleasePOST_RUN
                0x000122f0       0x50 EcuM_Fixed.o
                0x000122f0                EcuM_ReleasePOST_RUN
 .text.EcuM_GetStatusOfWakeupSource
                0x00012340       0x60 EcuM_Fixed.o
                0x00012340                EcuM_GetStatusOfWakeupSource
 .text.SetCurrentState
                0x000123a0       0x30 EcuM_Main.o
                0x000123a0                SetCurrentState
 .text.SetComMCommunicationAllowed
                0x000123d0       0x28 EcuM_Main.o
 *fill*         0x000123f8        0x8 
 .text.EcuM_enter_run_mode
                0x00012400       0x50 EcuM_Main.o
                0x00012400                EcuM_enter_run_mode
 .text.enter_go_sleep_mode
                0x00012450       0x28 EcuM_Main.o
 *fill*         0x00012478        0x8 
 .text.in_state_goSleep
                0x00012480      0x114 EcuM_Main.o
 *fill*         0x00012594        0xc 
 .text.in_state_sleep
                0x000125a0       0x68 EcuM_Main.o
 *fill*         0x00012608        0x8 
 .text.enter_go_off_one_mode
                0x00012610       0x24 EcuM_Main.o
 *fill*         0x00012634        0xc 
 .text.hasRunRequests
                0x00012640       0x40 EcuM_Main.o
 .text.hasPostRunRequests
                0x00012680       0x34 EcuM_Main.o
 *fill*         0x000126b4        0xc 
 .text.in_state_appRun
                0x000126c0       0x74 EcuM_Main.o
 *fill*         0x00012734        0xc 
 .text.in_state_appPostRun
                0x00012740       0x48 EcuM_Main.o
 *fill*         0x00012788        0x8 
 .text.in_state_prepShutdown
                0x00012790       0x54 EcuM_Main.o
 *fill*         0x000127e4        0xc 
 .text.in_state_goOffOne
                0x000127f0       0x14 EcuM_Main.o
 *fill*         0x00012804        0xc 
 .text.EcuM_MainFunction
                0x00012810      0x428 EcuM_Main.o
                0x00012810                EcuM_MainFunction
 *fill*         0x00012c38        0x8 
 .text.EcuM_ErrorHook
                0x00012c40       0x18 EcuM_Callout_Stubs.o
                0x00012c40                EcuM_ErrorHook
 *fill*         0x00012c58        0x8 
 .text._dummy   0x00012c60       0x14 EcuM_Callout_Stubs.o
 *fill*         0x00012c74        0xc 
 .text.EcuM_DeterminePbConfiguration
                0x00012c80       0x38 EcuM_Callout_Stubs.o
                0x00012c80                EcuM_DeterminePbConfiguration
 *fill*         0x00012cb8        0x8 
 .text.EcuM_AL_DriverInitZero
                0x00012cc0       0x14 EcuM_Callout_Stubs.o
                0x00012cc0                EcuM_AL_DriverInitZero
 *fill*         0x00012cd4        0xc 
 .text.EcuM_AL_DriverInitOne
                0x00012ce0       0x84 EcuM_Callout_Stubs.o
                0x00012ce0                EcuM_AL_DriverInitOne
 *fill*         0x00012d64        0xc 
 .text.EcuM_AL_DriverInitTwo
                0x00012d70       0x98 EcuM_Callout_Stubs.o
                0x00012d70                EcuM_AL_DriverInitTwo
 *fill*         0x00012e08        0x8 
 .text.EcuM_AL_DriverInitThree
                0x00012e10       0x1c EcuM_Callout_Stubs.o
                0x00012e10                EcuM_AL_DriverInitThree
 *fill*         0x00012e2c        0x4 
 .text.EcuM_LoopDetection
                0x00012e30       0x1c EcuM_Callout_Stubs.o
                0x00012e30                EcuM_LoopDetection
 *fill*         0x00012e4c        0x4 
 .text.EcuM_OnEnterRun
                0x00012e50       0x14 EcuM_Callout_Stubs.o
                0x00012e50                EcuM_OnEnterRun
 *fill*         0x00012e64        0xc 
 .text.EcuM_OnExitRun
                0x00012e70       0x14 EcuM_Callout_Stubs.o
                0x00012e70                EcuM_OnExitRun
 *fill*         0x00012e84        0xc 
 .text.EcuM_OnExitPostRun
                0x00012e90       0x14 EcuM_Callout_Stubs.o
                0x00012e90                EcuM_OnExitPostRun
 *fill*         0x00012ea4        0xc 
 .text.EcuM_OnPrepShutdown
                0x00012eb0       0x14 EcuM_Callout_Stubs.o
                0x00012eb0                EcuM_OnPrepShutdown
 *fill*         0x00012ec4        0xc 
 .text.EcuM_OnGoSleep
                0x00012ed0       0x14 EcuM_Callout_Stubs.o
                0x00012ed0                EcuM_OnGoSleep
 *fill*         0x00012ee4        0xc 
 .text.EcuM_OnGoOffOne
                0x00012ef0       0x14 EcuM_Callout_Stubs.o
                0x00012ef0                EcuM_OnGoOffOne
 *fill*         0x00012f04        0xc 
 .text.EcuM_OnGoOffTwo
                0x00012f10       0x14 EcuM_Callout_Stubs.o
                0x00012f10                EcuM_OnGoOffTwo
 *fill*         0x00012f24        0xc 
 .text.EcuM_AL_SwitchOff
                0x00012f30       0x14 EcuM_Callout_Stubs.o
                0x00012f30                EcuM_AL_SwitchOff
 *fill*         0x00012f44        0xc 
 .text.EcuM_CheckWakeup
                0x00012f50       0x48 EcuM_Callout_Stubs.o
                0x00012f50                EcuM_CheckWakeup
 *fill*         0x00012f98        0x8 
 .text.EcuM_EnableWakeupSources
                0x00012fa0       0x1c EcuM_Callout_Stubs.o
                0x00012fa0                EcuM_EnableWakeupSources
 *fill*         0x00012fbc        0x4 
 .text.EcuM_DisableWakeupSources
                0x00012fc0       0x1c EcuM_Callout_Stubs.o
                0x00012fc0                EcuM_DisableWakeupSources
 *fill*         0x00012fdc        0x4 
 .text.EcuM_StartWakeupSources
                0x00012fe0       0x40 EcuM_Callout_Stubs.o
                0x00012fe0                EcuM_StartWakeupSources
 .text.EcuM_StopWakeupSources
                0x00013020       0x40 EcuM_Callout_Stubs.o
                0x00013020                EcuM_StopWakeupSources
 .text.EcuM_CheckValidation
                0x00013060       0x40 EcuM_Callout_Stubs.o
                0x00013060                EcuM_CheckValidation
 .text.EcuM_AL_DriverRestart
                0x000130a0       0x7c EcuM_Callout_Stubs.o
                0x000130a0                EcuM_AL_DriverRestart
 *fill*         0x0001311c        0x4 
 .text.EcuM_OnWakeupReaction
                0x00013120       0x40 EcuM_Callout_Stubs.o
                0x00013120                EcuM_OnWakeupReaction
 .text.EcuM_GenerateRamHash
                0x00013160       0x34 EcuM_Callout_Stubs.o
                0x00013160                EcuM_GenerateRamHash
 *fill*         0x00013194        0xc 
 .text.EcuM_CheckRamHash
                0x000131a0       0x38 EcuM_Callout_Stubs.o
                0x000131a0                EcuM_CheckRamHash
 *fill*         0x000131d8        0x8 
 .text.Dma_Init
                0x000131e0       0x70 Dma.o
                0x000131e0                Dma_Init
 .text.Dma_DeInit
                0x00013250       0x24 Dma.o
                0x00013250                Dma_DeInit
 *fill*         0x00013274        0xc 
 .text.Dma_AlignCB
                0x00013280       0x34 Dma.o
                0x00013280                Dma_AlignCB
 *fill*         0x000132b4        0xc 
 .text.Dma_ConfigureChannel
                0x000132c0       0xb0 Dma.o
                0x000132c0                Dma_ConfigureChannel
 .text.Dma_ConfigureCB
                0x00013370       0x70 Dma.o
                0x00013370                Dma_ConfigureCB
 .text.__enable_irq
                0x000133e0       0x18 Mcu.o
 *fill*         0x000133f8        0x8 
 .text.SetClocks
                0x00013400       0x1c Mcu.o
 *fill*         0x0001341c        0x4 
 .text.InitPerClocks
                0x00013420       0x14 Mcu.o
 *fill*         0x00013434        0xc 
 .text.InitMcuClocks
                0x00013440       0x20 Mcu.o
 .text.Mcu_Init
                0x00013460       0x4c Mcu.o
                0x00013460                Mcu_Init
 *fill*         0x000134ac        0x4 
 .text.Mcu_DeInit
                0x000134b0       0x24 Mcu.o
                0x000134b0                Mcu_DeInit
 *fill*         0x000134d4        0xc 
 .text.Mcu_InitRamSection
                0x000134e0       0x28 Mcu.o
                0x000134e0                Mcu_InitRamSection
 *fill*         0x00013508        0x8 
 .text.Mcu_InitClock
                0x00013510       0x38 Mcu.o
                0x00013510                Mcu_InitClock
 *fill*         0x00013548        0x8 
 .text.Mcu_DistributePllClock
                0x00013550       0x14 Mcu.o
                0x00013550                Mcu_DistributePllClock
 *fill*         0x00013564        0xc 
 .text.Mcu_GetPllStatus
                0x00013570       0x1c Mcu.o
                0x00013570                Mcu_GetPllStatus
 *fill*         0x0001358c        0x4 
 .text.Mcu_GetResetReason
                0x00013590       0x1c Mcu.o
                0x00013590                Mcu_GetResetReason
 *fill*         0x000135ac        0x4 
 .text.Mcu_GetResetRawValue
                0x000135b0       0x1c Mcu.o
                0x000135b0                Mcu_GetResetRawValue
 *fill*         0x000135cc        0x4 
 .text.Mcu_SetMode
                0x000135d0       0x20 Mcu.o
                0x000135d0                Mcu_SetMode
 .text.McuE_GetSystemClock
                0x000135f0       0xd4 Mcu.o
                0x000135f0                McuE_GetSystemClock
 *fill*         0x000136c4        0xc 
 .text.McuE_GetPeripheralClock
                0x000136d0       0x2c Mcu.o
                0x000136d0                McuE_GetPeripheralClock
 *fill*         0x000136fc        0x4 
 .text.Mcu_ConfigureFlash
                0x00013700       0x14 Mcu.o
                0x00013700                Mcu_ConfigureFlash
 *fill*         0x00013714        0xc 
 .text.Can_ReadController_Reg
                0x00013720       0x50 Can.o
 .text.Can_ReadController_Regs
                0x00013770       0xa4 Can.o
 *fill*         0x00013814        0xc 
 .text.Can_ReadController_Status
                0x00013820       0x5c Can.o
 *fill*         0x0001387c        0x4 
 .text.Can_ReadController_MsgID
                0x00013880       0x58 Can.o
 *fill*         0x000138d8        0x8 
 .text.Can_ReadController_Msg
                0x000138e0       0x94 Can.o
 *fill*         0x00013974        0xc 
 .text.Can_WriteController_Reg
                0x00013980       0x3c Can.o
 *fill*         0x000139bc        0x4 
 .text.Can_WriteController_Regs
                0x000139c0       0x80 Can.o
 .text.Can_WriteController_BitModify
                0x00013a40       0x94 Can.o
 *fill*         0x00013ad4        0xc 
 .text.Can_WriteController_MsgID
                0x00013ae0       0x6c Can.o
 *fill*         0x00013b4c        0x4 
 .text.Can_ResetController
                0x00013b50       0x5c Can.o
 *fill*         0x00013bac        0x4 
 .text.Can_SetController_Mode
                0x00013bb0       0x70 Can.o
 .text.Can_GetController_TxBuf
                0x00013c20       0xc8 Can.o
 *fill*         0x00013ce8        0x8 
 .text.Can_SendMessage
                0x00013cf0       0xc8 Can.o
 *fill*         0x00013db8        0x8 
 .text.Can_FindHoh
                0x00013dc0       0xd0 Can.o
 .text.Can_TriggerCanIf
                0x00013e90      0x1bc Can.o
 *fill*         0x0001404c        0x4 
 .text.Can_Init
                0x00014050      0x21c Can.o
                0x00014050                Can_Init
 *fill*         0x0001426c        0x4 
 .text.Can_InitController
                0x00014270      0x264 Can.o
                0x00014270                Can_InitController
 *fill*         0x000144d4        0xc 
 .text.Can_SetControllerMode
                0x000144e0      0x21c Can.o
                0x000144e0                Can_SetControllerMode
 *fill*         0x000146fc        0x4 
 .text.Can_SetBaudrate
                0x00014700      0x15c Can.o
                0x00014700                Can_SetBaudrate
 *fill*         0x0001485c        0x4 
 .text.Can_Write
                0x00014860       0xf8 Can.o
                0x00014860                Can_Write
 *fill*         0x00014958        0x8 
 .text.Can_MainFunction_Read
                0x00014960      0x194 Can.o
                0x00014960                Can_MainFunction_Read
 *fill*         0x00014af4        0xc 
 .text.Can_CheckBaudrate
                0x00014b00      0x13c Can.o
                0x00014b00                Can_CheckBaudrate
 *fill*         0x00014c3c        0x4 
 .text.Can_ChangeBaudrate
                0x00014c40       0xb4 Can.o
                0x00014c40                Can_ChangeBaudrate
 *fill*         0x00014cf4        0xc 
 .text.ControllerToChannel
                0x00014d00       0xa8 CanIf.o
 *fill*         0x00014da8        0x8 
 .text.CanIf_Init
                0x00014db0       0xc0 CanIf.o
                0x00014db0                CanIf_Init
 .text.CanIf_ControllerModeIndication
                0x00014e70      0x144 CanIf.o
                0x00014e70                CanIf_ControllerModeIndication
 *fill*         0x00014fb4        0xc 
 .text.CanIf_SetControllerMode
                0x00014fc0      0x1b8 CanIf.o
                0x00014fc0                CanIf_SetControllerMode
 *fill*         0x00015178        0x8 
 .text.CanIf_GetControllerMode
                0x00015180       0xd4 CanIf.o
                0x00015180                CanIf_GetControllerMode
 *fill*         0x00015254        0xc 
 .text.CanIf_Transmit
                0x00015260      0x25c CanIf.o
                0x00015260                CanIf_Transmit
 *fill*         0x000154bc        0x4 
 .text.CanIf_TxConfirmation
                0x000154c0      0x15c CanIf.o
                0x000154c0                CanIf_TxConfirmation
 *fill*         0x0001561c        0x4 
 .text.CanIf_RxIndication
                0x00015620      0x3fc CanIf.o
                0x00015620                CanIf_RxIndication
 *fill*         0x00015a1c        0x4 
 .text.CanIf_SetPduMode
                0x00015a20      0x2c4 CanIf.o
                0x00015a20                CanIf_SetPduMode
 *fill*         0x00015ce4        0xc 
 .text.CanIf_GetPduMode
                0x00015cf0       0xd4 CanIf.o
                0x00015cf0                CanIf_GetPduMode
 *fill*         0x00015dc4        0xc 
 .text.CanIf_ControllerBusOff
                0x00015dd0      0x108 CanIf.o
                0x00015dd0                CanIf_ControllerBusOff
 *fill*         0x00015ed8        0x8 
 .text.CanIf_Arc_Error
                0x00015ee0       0x24 CanIf.o
                0x00015ee0                CanIf_Arc_Error
 *fill*         0x00015f04        0xc 
 .text.Dio_ReadChannel
                0x00015f10       0x78 Dio.o
                0x00015f10                Dio_ReadChannel
 *fill*         0x00015f88        0x8 
 .text.Dio_WriteChannel
                0x00015f90       0x98 Dio.o
                0x00015f90                Dio_WriteChannel
 *fill*         0x00016028        0x8 
 .text.Dio_ReadPort
                0x00016030       0x30 Dio.o
                0x00016030                Dio_ReadPort
 .text.Dio_WritePort
                0x00016060       0x28 Dio.o
                0x00016060                Dio_WritePort
 *fill*         0x00016088        0x8 
 .text.Dio_ReadChannelGroup
                0x00016090       0x60 Dio.o
                0x00016090                Dio_ReadChannelGroup
 .text.Dio_WriteChannelGroup
                0x000160f0       0xa8 Dio.o
                0x000160f0                Dio_WriteChannelGroup
 *fill*         0x00016198        0x8 
 .text.Dio_GetPortConfigSize
                0x000161a0       0x1c Dio_Lcfg.o
                0x000161a0                Dio_GetPortConfigSize
 *fill*         0x000161bc        0x4 
 .text.set_gpio_in
                0x000161c0       0x80 Port.o
 .text.Port_Init
                0x00016240       0xfc Port.o
                0x00016240                Port_Init
 *fill*         0x0001633c        0x4 
 .text.Port_RefreshPortDirection
                0x00016340       0x18 Port.o
                0x00016340                Port_RefreshPortDirection
 *fill*         0x00016358        0x8 
 .text._Irq_Save
                0x00016360       0x24 event.o
 *fill*         0x00016384        0xc 
 .text._Irq_Restore
                0x00016390       0x20 event.o
 .text.Os_TaskGet
                0x000163b0       0x44 event.o
 *fill*         0x000163f4        0xc 
 .text.Os_TaskOccupiesResources
                0x00016400       0x38 event.o
 *fill*         0x00016438        0x8 
 .text.Os_TaskOccupiesSpinlocks
                0x00016440       0x38 event.o
 *fill*         0x00016478        0x8 
 .text.Os_SchedulerResourceIsFree
                0x00016480       0x3c event.o
 *fill*         0x000164bc        0x4 
 .text.Os_SysTaskGetCurr
                0x000164c0       0x24 event.o
 *fill*         0x000164e4        0xc 
 .text.WaitEvent
                0x000164f0      0x1ec event.o
                0x000164f0                WaitEvent
 *fill*         0x000166dc        0x4 
 .text.SetEvent
                0x000166e0      0x260 event.o
                0x000166e0                SetEvent
 .text.GetEvent
                0x00016940      0x2d4 event.o
                0x00016940                GetEvent
 *fill*         0x00016c14        0xc 
 .text.ClearEvent
                0x00016c20      0x15c event.o
                0x00016c20                ClearEvent
 *fill*         0x00016d7c        0x4 
 .text.__disable_irq
                0x00016d80       0x18 os_init.o
 *fill*         0x00016d98        0x8 
 .text.Os_TaskGet
                0x00016da0       0x44 os_init.o
 *fill*         0x00016de4        0xc 
 .text.Os_CfgValidate
                0x00016df0       0x14 os_init.o
 *fill*         0x00016e04        0xc 
 .text.copyPcbParts
                0x00016e10       0x64 os_init.o
 *fill*         0x00016e74        0xc 
 .text.InitOS   0x00016e80      0x14c os_init.o
                0x00016e80                InitOS
 *fill*         0x00016fcc        0x4 
 .text.os_start
                0x00016fd0      0x18c os_init.o
 *fill*         0x0001715c        0x4 
 .text.main     0x00017160       0x18 os_init.o
                0x00017160                main
 *fill*         0x00017178        0x8 
 .text.StartOS  0x00017180       0x38 os_init.o
                0x00017180                StartOS
 *fill*         0x000171b8        0x8 
 .text.ShutdownOS
                0x000171c0       0x4c os_init.o
                0x000171c0                ShutdownOS
 *fill*         0x0001720c        0x4 
 .text.__enable_irq
                0x00017210       0x18 arch.o
 *fill*         0x00017228        0x8 
 .text.Os_ArchFirstCall
                0x00017230       0x28 arch.o
                0x00017230                Os_ArchFirstCall
 *fill*         0x00017258        0x8 
 .text.Os_ArchGetStackPtr
                0x00017260       0x28 arch.o
                0x00017260                Os_ArchGetStackPtr
 *fill*         0x00017288        0x8 
 .text.Os_ArchGetScSize
                0x00017290       0x1c arch.o
                0x00017290                Os_ArchGetScSize
 *fill*         0x000172ac        0x4 
 .text.Os_ArchSetTaskEntry
                0x000172b0       0x8c arch.o
                0x000172b0                Os_ArchSetTaskEntry
 *fill*         0x0001733c        0x4 
 .text.Os_ArchSetupContext
                0x00017340       0x1c arch.o
                0x00017340                Os_ArchSetupContext
 *fill*         0x0001735c        0x4 
 .text.Os_ArchInit
                0x00017360       0x14 arch.o
                0x00017360                Os_ArchInit
 *fill*         0x00017374        0xc 
 .text.Os_ArchPanic
                0x00017380       0x18 arch.o
                0x00017380                Os_ArchPanic
 *fill*         0x00017398        0x8 
 .text.Os_ArchTest
                0x000173a0       0x1c arch.o
                0x000173a0                Os_ArchTest
 *fill*         0x000173bc        0x4 
 .text.__disable_irq
                0x000173c0       0x18 task.o
 *fill*         0x000173d8        0x8 
 .text._Irq_Save
                0x000173e0       0x24 task.o
 *fill*         0x00017404        0xc 
 .text._Irq_Restore
                0x00017410       0x20 task.o
 .text.Os_TaskMakeRunning
                0x00017430       0x28 task.o
 *fill*         0x00017458        0x8 
 .text.Os_TaskGet
                0x00017460       0x44 task.o
 *fill*         0x000174a4        0xc 
 .text.Os_TaskResourceRemove
                0x000174b0       0xec task.o
 *fill*         0x0001759c        0x4 
 .text.Os_TaskResourceFreeAll
                0x000175a0       0x4c task.o
 *fill*         0x000175ec        0x4 
 .text.Os_StackGetUsage
                0x000175f0       0x6c task.o
 *fill*         0x0001765c        0x4 
 .text.Os_StackSetEndmark
                0x00017660       0x34 task.o
 *fill*         0x00017694        0xc 
 .text.Os_StackIsEndmarkOk
                0x000176a0       0x48 task.o
 *fill*         0x000176e8        0x8 
 .text.Os_TaskOccupiesResources
                0x000176f0       0x38 task.o
 *fill*         0x00017728        0x8 
 .text.Os_SchedulerResourceIsFree
                0x00017730       0x3c task.o
 *fill*         0x0001776c        0x4 
 .text.Os_SysTaskSetCurr
                0x00017770       0x2c task.o
 *fill*         0x0001779c        0x4 
 .text.Os_SysTaskGetCurr
                0x000177a0       0x24 task.o
 *fill*         0x000177c4        0xc 
 .text.Os_SysIsrGetCurr
                0x000177d0       0x24 task.o
 *fill*         0x000177f4        0xc 
 .text.Os_SysIntAnyDisabled
                0x00017800       0x60 task.o
 .text.Os_SysIntClearAll
                0x00017860       0x44 task.o
 *fill*         0x000178a4        0xc 
 .text.Os_TaskRunningToReady
                0x000178b0       0x38 task.o
 *fill*         0x000178e8        0x8 
 .text.Os_TaskMakeReady
                0x000178f0       0x7c task.o
                0x000178f0                Os_TaskMakeReady
 *fill*         0x0001796c        0x4 
 .text.Os_TaskMakeWaiting
                0x00017970       0x8c task.o
                0x00017970                Os_TaskMakeWaiting
 *fill*         0x000179fc        0x4 
 .text.Os_TaskMakeSuspended
                0x00017a00       0x8c task.o
 *fill*         0x00017a8c        0x4 
 .text.Os_TaskStartExtended
                0x00017a90      0x108 task.o
                0x00017a90                Os_TaskStartExtended
 *fill*         0x00017b98        0x8 
 .text.Os_TaskStartBasic
                0x00017ba0      0x108 task.o
                0x00017ba0                Os_TaskStartBasic
 *fill*         0x00017ca8        0x8 
 .text.Os_StackSetup
                0x00017cb0       0x6c task.o
 *fill*         0x00017d1c        0x4 
 .text.Os_StackFill
                0x00017d20       0x68 task.o
 *fill*         0x00017d88        0x8 
 .text.Os_TaskContextInit
                0x00017d90       0x64 task.o
                0x00017d90                Os_TaskContextInit
 *fill*         0x00017df4        0xc 
 .text.Os_TaskGetTop
                0x00017e00       0xd4 task.o
                0x00017e00                Os_TaskGetTop
 *fill*         0x00017ed4        0xc 
 .text.Os_Dispatch
                0x00017ee0      0x334 task.o
                0x00017ee0                Os_Dispatch
 *fill*         0x00018214        0xc 
 .text.Os_TaskSwapContext
                0x00018220       0xbc task.o
                0x00018220                Os_TaskSwapContext
 *fill*         0x000182dc        0x4 
 .text.Os_TaskSwapContextTo
                0x000182e0       0xb8 task.o
                0x000182e0                Os_TaskSwapContextTo
 *fill*         0x00018398        0x8 
 .text.Os_Arc_GetStackInfo
                0x000183a0       0x88 task.o
                0x000183a0                Os_Arc_GetStackInfo
 *fill*         0x00018428        0x8 
 .text.Os_Arc_GetTaskName
                0x00018430       0x48 task.o
                0x00018430                Os_Arc_GetTaskName
 *fill*         0x00018478        0x8 
 .text.GetTaskState
                0x00018480      0x1b8 task.o
                0x00018480                GetTaskState
 *fill*         0x00018638        0x8 
 .text.GetTaskID
                0x00018640       0x80 task.o
                0x00018640                GetTaskID
 .text.GetISRID
                0x000186c0       0x40 task.o
                0x000186c0                GetISRID
 .text.Os_Arc_SetCleanContext
                0x00018700       0x5c task.o
 *fill*         0x0001875c        0x4 
 .text.ActivateTask
                0x00018760      0x24c task.o
                0x00018760                ActivateTask
 *fill*         0x000189ac        0x4 
 .text.TerminateTask
                0x000189b0       0x24 task.o
                0x000189b0                TerminateTask
 *fill*         0x000189d4        0xc 
 .text.ChainTask
                0x000189e0      0x1cc task.o
                0x000189e0                ChainTask
 *fill*         0x00018bac        0x4 
 .text.Schedule
                0x00018bb0      0x1b0 task.o
                0x00018bb0                Schedule
 .text.Os_Arc_GetTaskInfo
                0x00018d60       0x50 task.o
                0x00018d60                Os_Arc_GetTaskInfo
 .text._Irq_Save
                0x00018db0       0x24 resource.o
 *fill*         0x00018dd4        0xc 
 .text._Irq_Restore
                0x00018de0       0x20 resource.o
 .text.Os_ResourceGet
                0x00018e00       0x28 resource.o
 *fill*         0x00018e28        0x8 
 .text.Os_TaskResourceAdd
                0x00018e30       0xa8 resource.o
 *fill*         0x00018ed8        0x8 
 .text.Os_TaskResourceRemove
                0x00018ee0       0xec resource.o
 *fill*         0x00018fcc        0x4 
 .text.Os_IsrResourceAdd
                0x00018fd0       0x44 resource.o
 *fill*         0x00019014        0xc 
 .text.Os_SchedulerResourceIsFree
                0x00019020       0x3c resource.o
 *fill*         0x0001905c        0x4 
 .text.Os_SysTaskGetCurr
                0x00019060       0x24 resource.o
 *fill*         0x00019084        0xc 
 .text.Os_SysIsrGetCurr
                0x00019090       0x24 resource.o
 *fill*         0x000190b4        0xc 
 .text.GetResource
                0x000190c0      0x270 resource.o
                0x000190c0                GetResource
 .text.ReleaseResource
                0x00019330      0x244 resource.o
                0x00019330                ReleaseResource
 *fill*         0x00019574        0xc 
 .text.Os_ResourceGetInternal
                0x00019580       0x44 resource.o
                0x00019580                Os_ResourceGetInternal
 *fill*         0x000195c4        0xc 
 .text.Os_ResourceReleaseInternal
                0x000195d0       0x44 resource.o
                0x000195d0                Os_ResourceReleaseInternal
 *fill*         0x00019614        0xc 
 .text.Os_ResourceInit
                0x00019620       0x5c resource.o
                0x00019620                Os_ResourceInit
 *fill*         0x0001967c        0x4 
 .text._Irq_Save
                0x00019680       0x24 alarm.o
 *fill*         0x000196a4        0xc 
 .text._Irq_Restore
                0x000196b0       0x20 alarm.o
 .text.Os_CounterGetMaxValue
                0x000196d0       0x28 alarm.o
 *fill*         0x000196f8        0x8 
 .text.Os_CounterGetValue
                0x00019700       0x28 alarm.o
 *fill*         0x00019728        0x8 
 .text.Os_CounterDiff
                0x00019730       0x60 alarm.o
 .text.Os_CounterAdd
                0x00019790       0x7c alarm.o
 *fill*         0x0001980c        0x4 
 .text.Os_AlarmGet
                0x00019810       0x58 alarm.o
 *fill*         0x00019868        0x8 
 .text.Os_AlarmGetBase
                0x00019870       0x88 alarm.o
 *fill*         0x000198f8        0x8 
 .text.GetAlarmBase
                0x00019900      0x15c alarm.o
                0x00019900                GetAlarmBase
 *fill*         0x00019a5c        0x4 
 .text.GetAlarm
                0x00019a60      0x1cc alarm.o
                0x00019a60                GetAlarm
 *fill*         0x00019c2c        0x4 
 .text.SetRelAlarm
                0x00019c30      0x254 alarm.o
                0x00019c30                SetRelAlarm
 *fill*         0x00019e84        0xc 
 .text.SetAbsAlarm
                0x00019e90      0x218 alarm.o
                0x00019e90                SetAbsAlarm
 *fill*         0x0001a0a8        0x8 
 .text.CancelAlarm
                0x0001a0b0      0x17c alarm.o
                0x0001a0b0                CancelAlarm
 *fill*         0x0001a22c        0x4 
 .text.AlarmProcess
                0x0001a230       0x84 alarm.o
 *fill*         0x0001a2b4        0xc 
 .text.Os_AlarmCheck
                0x0001a2c0      0x1b8 alarm.o
                0x0001a2c0                Os_AlarmCheck
 *fill*         0x0001a478        0x8 
 .text.Os_AlarmAutostart
                0x0001a480       0xec alarm.o
                0x0001a480                Os_AlarmAutostart
 *fill*         0x0001a56c        0x4 
 .text._Irq_Save
                0x0001a570       0x24 sched_table.o
 *fill*         0x0001a594        0xc 
 .text._Irq_Restore
                0x0001a5a0       0x20 sched_table.o
 .text.Os_CounterGetMaxValue
                0x0001a5c0       0x28 sched_table.o
 *fill*         0x0001a5e8        0x8 
 .text.Os_CounterGetMinCycle
                0x0001a5f0       0x28 sched_table.o
 *fill*         0x0001a618        0x8 
 .text.Os_CounterGetValue
                0x0001a620       0x28 sched_table.o
 *fill*         0x0001a648        0x8 
 .text.Os_CounterAdd
                0x0001a650       0x7c sched_table.o
 *fill*         0x0001a6cc        0x4 
 .text.Os_SchTblGet
                0x0001a6d0       0x28 sched_table.o
 *fill*         0x0001a6f8        0x8 
 .text.Os_SchTblGetInitialOffset
                0x0001a700       0x30 sched_table.o
 .text.Os_SchTblGetFinalOffset
                0x0001a730       0x5c sched_table.o
 *fill*         0x0001a78c        0x4 
 .text.Os_SchTblUpdateState
                0x0001a790      0x2d0 sched_table.o
 .text.ScheduleTableConsistenyCheck
                0x0001aa60      0x150 sched_table.o
 .text.StartScheduleTableRel
                0x0001abb0      0x190 sched_table.o
                0x0001abb0                StartScheduleTableRel
 .text.StartScheduleTableAbs
                0x0001ad40      0x194 sched_table.o
                0x0001ad40                StartScheduleTableAbs
 *fill*         0x0001aed4        0xc 
 .text.StopScheduleTable
                0x0001aee0      0x138 sched_table.o
                0x0001aee0                StopScheduleTable
 *fill*         0x0001b018        0x8 
 .text.NextScheduleTable
                0x0001b020      0x224 sched_table.o
                0x0001b020                NextScheduleTable
 *fill*         0x0001b244        0xc 
 .text.GetScheduleTableStatus
                0x0001b250      0x150 sched_table.o
                0x0001b250                GetScheduleTableStatus
 .text.Os_SchTblCheck
                0x0001b3a0      0x198 sched_table.o
                0x0001b3a0                Os_SchTblCheck
 *fill*         0x0001b538        0x8 
 .text.Os_SchTblInit
                0x0001b540       0x24 sched_table.o
                0x0001b540                Os_SchTblInit
 *fill*         0x0001b564        0xc 
 .text.Os_SchTblAutostart
                0x0001b570       0x24 sched_table.o
                0x0001b570                Os_SchTblAutostart
 *fill*         0x0001b594        0xc 
 .text._Irq_Save
                0x0001b5a0       0x24 counter.o
 *fill*         0x0001b5c4        0xc 
 .text._Irq_Restore
                0x0001b5d0       0x20 counter.o
 .text.Os_CounterGetMaxValue
                0x0001b5f0       0x28 counter.o
 *fill*         0x0001b618        0x8 
 .text.Os_CounterGet
                0x0001b620       0x44 counter.o
 *fill*         0x0001b664        0xc 
 .text.Os_CounterDiff
                0x0001b670       0x60 counter.o
 .text.Os_CounterAdd
                0x0001b6d0       0x7c counter.o
 *fill*         0x0001b74c        0x4 
 .text.Os_AlarmGet
                0x0001b750       0x58 counter.o
 *fill*         0x0001b7a8        0x8 
 .text.IncrementCounter
                0x0001b7b0      0x194 counter.o
                0x0001b7b0                IncrementCounter
 *fill*         0x0001b944        0xc 
 .text.GetCounterValue
                0x0001b950      0x160 counter.o
                0x0001b950                GetCounterValue
 .text.GetElapsedCounterValue
                0x0001bab0      0x190 counter.o
                0x0001bab0                GetElapsedCounterValue
 .text.OsTick   0x0001bc40       0x94 counter.o
                0x0001bc40                OsTick
 *fill*         0x0001bcd4        0xc 
 .text.GetOsTick
                0x0001bce0       0x24 counter.o
                0x0001bce0                GetOsTick
 *fill*         0x0001bd04        0xc 
 .text.Os_CounterInit
                0x0001bd10       0x74 counter.o
                0x0001bd10                Os_CounterInit
 *fill*         0x0001bd84        0xc 
 .text.Os_CounterDiff
                0x0001bd90       0x60 sys_tick.o
 .text.led_proof
                0x0001bdf0       0xe4 sys_tick.o
 *fill*         0x0001bed4        0xc 
 .text.Bcm2835OsTick
                0x0001bee0       0x14 sys_tick.o
                0x0001bee0                Bcm2835OsTick
 *fill*         0x0001bef4        0xc 
 .text.Os_SysTickInit
                0x0001bf00       0x18 sys_tick.o
                0x0001bf00                Os_SysTickInit
 *fill*         0x0001bf18        0x8 
 .text.Os_SysTickStart
                0x0001bf20       0x90 sys_tick.o
                0x0001bf20                Os_SysTickStart
 .text.Os_SysTickGetValue
                0x0001bfb0       0x40 sys_tick.o
                0x0001bfb0                Os_SysTickGetValue
 .text.Os_SysTickGetElapsedValue
                0x0001bff0       0x5c sys_tick.o
                0x0001bff0                Os_SysTickGetElapsedValue
 *fill*         0x0001c04c        0x4 
 .text.Os_StackIsEndmarkOk
                0x0001c050       0x48 isr.o
 *fill*         0x0001c098        0x8 
 .text.Os_StackPerformCheck
                0x0001c0a0       0x3c isr.o
 *fill*         0x0001c0dc        0x4 
 .text.Os_IsrResourceRemove
                0x0001c0e0       0xdc isr.o
 *fill*         0x0001c1bc        0x4 
 .text.Os_IsrResourceFreeAll
                0x0001c1c0       0x4c isr.o
 *fill*         0x0001c20c        0x4 
 .text.Os_IsrOccupiesResources
                0x0001c210       0x38 isr.o
 *fill*         0x0001c248        0x8 
 .text.Os_SchedulerResourceIsFree
                0x0001c250       0x3c isr.o
 *fill*         0x0001c28c        0x4 
 .text.Os_SysTaskGetCurr
                0x0001c290       0x24 isr.o
 *fill*         0x0001c2b4        0xc 
 .text.Os_SysIntAnyDisabled
                0x0001c2c0       0x60 isr.o
 .text.Os_SysIntClearAll
                0x0001c320       0x44 isr.o
 *fill*         0x0001c364        0xc 
 .text.Os_ApplGetCore
                0x0001c370       0x4c isr.o
 *fill*         0x0001c3bc        0x4 
 .text.Os_IsrInit
                0x0001c3c0       0x34 isr.o
                0x0001c3c0                Os_IsrInit
 *fill*         0x0001c3f4        0xc 
 .text.Os_IsrAdd
                0x0001c400      0x158 isr.o
                0x0001c400                Os_IsrAdd
 *fill*         0x0001c558        0x8 
 .text.Os_IsrGetStackInfo
                0x0001c560       0x38 isr.o
                0x0001c560                Os_IsrGetStackInfo
 *fill*         0x0001c598        0x8 
 .text.Os_IsrGet
                0x0001c5a0       0x64 isr.o
                0x0001c5a0                Os_IsrGet
 *fill*         0x0001c604        0xc 
 .text.Os_IsrGetApplicationOwner
                0x0001c610       0x60 isr.o
                0x0001c610                Os_IsrGetApplicationOwner
 .text.Os_Isr   0x0001c670      0x448 isr.o
                0x0001c670                Os_Isr
 *fill*         0x0001cab8        0x8 
 .text.Os_Arc_GetIsrInfo
                0x0001cac0       0x68 isr.o
                0x0001cac0                Os_Arc_GetIsrInfo
 *fill*         0x0001cb28        0x8 
 .text.Os_Arc_GetIsrCount
                0x0001cb30       0x24 isr.o
                0x0001cb30                Os_Arc_GetIsrCount
 *fill*         0x0001cb54        0xc 
 .text.Os_TaskGet
                0x0001cb60       0x44 os_arctest.o
 *fill*         0x0001cba4        0xc 
 .text.Os_ArcTest_GetTaskActivationLimit
                0x0001cbb0       0x38 os_arctest.o
                0x0001cbb0                Os_ArcTest_GetTaskActivationLimit
 *fill*         0x0001cbe8        0x8 
 .text.Os_ArcTest_SetIrqNestLevel
                0x0001cbf0       0x30 os_arctest.o
                0x0001cbf0                Os_ArcTest_SetIrqNestLevel
 .text.Os_ResourceGetApplicationOwner
                0x0001cc20       0x30 application.o
 .text.Os_TaskGet
                0x0001cc50       0x44 application.o
 *fill*         0x0001cc94        0xc 
 .text.Os_TaskGetApplicationOwner
                0x0001cca0       0x70 application.o
 .text.Os_CounterGet
                0x0001cd10       0x44 application.o
 *fill*         0x0001cd54        0xc 
 .text.Os_CounterGetApplicationOwner
                0x0001cd60       0x54 application.o
 *fill*         0x0001cdb4        0xc 
 .text.Os_AlarmGet
                0x0001cdc0       0x58 application.o
 *fill*         0x0001ce18        0x8 
 .text.Os_AlarmGetApplicationOwner
                0x0001ce20       0x50 application.o
 .text.Os_SchTblGetApplicationOwner
                0x0001ce70       0x30 application.o
 .text.Os_ApplGet
                0x0001cea0       0x34 application.o
 *fill*         0x0001ced4        0xc 
 .text.GetApplicationID
                0x0001cee0       0x24 application.o
                0x0001cee0                GetApplicationID
 *fill*         0x0001cf04        0xc 
 .text.CallTrustedFunction
                0x0001cf10       0x2c application.o
                0x0001cf10                CallTrustedFunction
 *fill*         0x0001cf3c        0x4 
 .text.CheckISRMemoryAccess
                0x0001cf40       0x4c application.o
                0x0001cf40                CheckISRMemoryAccess
 *fill*         0x0001cf8c        0x4 
 .text.CheckTaskMemoryAccess
                0x0001cf90       0x4c application.o
                0x0001cf90                CheckTaskMemoryAccess
 *fill*         0x0001cfdc        0x4 
 .text.CheckObjectAccess
                0x0001cfe0      0x2a4 application.o
                0x0001cfe0                CheckObjectAccess
 *fill*         0x0001d284        0xc 
 .text.CheckObjectOwnership
                0x0001d290      0x1e8 application.o
                0x0001d290                CheckObjectOwnership
 *fill*         0x0001d478        0x8 
 .text.TerminateApplication
                0x0001d480      0x214 application.o
                0x0001d480                TerminateApplication
 *fill*         0x0001d694        0xc 
 .text.AllowAccess
                0x0001d6a0      0x150 application.o
                0x0001d6a0                AllowAccess
 .text.GetApplicationState
                0x0001d7f0      0x150 application.o
                0x0001d7f0                GetApplicationState
 .text.GetActiveApplicationMode
                0x0001d940       0x38 application.o
                0x0001d940                GetActiveApplicationMode
 *fill*         0x0001d978        0x8 
 .text.Os_ApplStart
                0x0001d980       0xbc application.o
                0x0001d980                Os_ApplStart
 *fill*         0x0001da3c        0x4 
 .text.Irq_SOI  0x0001da40       0x38 irq.o
                0x0001da40                Irq_SOI
 *fill*         0x0001da78        0x8 
 .text.Irq_EOI  0x0001da80       0x78 irq.o
                0x0001da80                Irq_EOI
 *fill*         0x0001daf8        0x8 
 .text.Irq_Init
                0x0001db00       0x14 irq.o
                0x0001db00                Irq_Init
 *fill*         0x0001db14        0xc 
 .text.Irq_Entry
                0x0001db20      0x148 irq.o
                0x0001db20                Irq_Entry
 *fill*         0x0001dc68        0x8 
 .text.Irq_EnableVector
                0x0001dc70       0x28 irq.o
                0x0001dc70                Irq_EnableVector
 *fill*         0x0001dc98        0x8 
 .text.Irq_GenerateSoftInt
                0x0001dca0       0x20 irq.o
                0x0001dca0                Irq_GenerateSoftInt
 .text.Irq_GetCurrentPriority
                0x0001dcc0       0x28 irq.o
                0x0001dcc0                Irq_GetCurrentPriority
 *fill*         0x0001dce8        0x8 
 .text.Spi_GetNextJob
                0x0001dcf0       0x40 Spi.o
 .text.Spi_SetHWUnitStatus
                0x0001dd30       0x30 Spi.o
 .text.Spi_SetJobResult
                0x0001dd60       0x58 Spi.o
 *fill*         0x0001ddb8        0x8 
 .text.Spi_SetSequenceResult
                0x0001ddc0       0x3c Spi.o
 *fill*         0x0001ddfc        0x4 
 .text.Spi_GetSeqPtrFromIndex
                0x0001de00       0x4c Spi.o
 *fill*         0x0001de4c        0x4 
 .text.Spi_GetJobCfgPtrFromIndex
                0x0001de50       0x4c Spi.o
 *fill*         0x0001de9c        0x4 
 .text.Spi_ShareJobs
                0x0001dea0      0x138 Spi.o
 *fill*         0x0001dfd8        0x8 
 .text.Spi_AnyPendingJobs
                0x0001dfe0       0xa4 Spi.o
 *fill*         0x0001e084        0xc 
 .text.Spi_GetRxBuf
                0x0001e090       0xb8 Spi.o
 *fill*         0x0001e148        0x8 
 .text.Spi_GetTxBuf
                0x0001e150       0xb8 Spi.o
 *fill*         0x0001e208        0x8 
 .text.Spi_Rx_FIFO
                0x0001e210      0x2e4 Spi.o
 *fill*         0x0001e4f4        0xc 
 .text.Spi_WriteJob_FIFO
                0x0001e500      0x2d8 Spi.o
 *fill*         0x0001e7d8        0x8 
 .text.Spi_JobWrite
                0x0001e7e0      0x140 Spi.o
 .text.Spi_Poll
                0x0001e920      0x134 Spi.o
 *fill*         0x0001ea54        0xc 
 .text.Spi_SeqWrite
                0x0001ea60      0x154 Spi.o
 *fill*         0x0001ebb4        0xc 
 .text.Spi_InitHW
                0x0001ebc0       0x68 Spi.o
 *fill*         0x0001ec28        0x8 
 .text.Spi_Transmit
                0x0001ec30      0x124 Spi.o
 *fill*         0x0001ed54        0xc 
 .text.Spi_Init
                0x0001ed60      0x33c Spi.o
                0x0001ed60                Spi_Init
 *fill*         0x0001f09c        0x4 
 .text.Spi_DeInit
                0x0001f0a0       0x1c Spi.o
                0x0001f0a0                Spi_DeInit
 *fill*         0x0001f0bc        0x4 
 .text.Spi_SetupEB
                0x0001f0c0      0x180 Spi.o
                0x0001f0c0                Spi_SetupEB
 .text.Spi_SyncTransmit
                0x0001f240       0x3c Spi.o
                0x0001f240                Spi_SyncTransmit
 *fill*         0x0001f27c        0x4 
 .text.Spi_AsyncTransmit
                0x0001f280       0x3c Spi.o
                0x0001f280                Spi_AsyncTransmit
 *fill*         0x0001f2bc        0x4 
 .text.Spi_GetSequenceResult
                0x0001f2c0       0x90 Spi.o
                0x0001f2c0                Spi_GetSequenceResult
 .text.Spi_GetJobCnt
                0x0001f350       0x1c Spi_Lcfg.o
                0x0001f350                Spi_GetJobCnt
 *fill*         0x0001f36c        0x4 
 .text.Spi_GetChanneCnt
                0x0001f370       0x1c Spi_Lcfg.o
                0x0001f370                Spi_GetChanneCnt
 *fill*         0x0001f38c        0x4 
 .text.Spi_GetExternalDeviceCnt
                0x0001f390       0x1c Spi_Lcfg.o
                0x0001f390                Spi_GetExternalDeviceCnt
 *fill*         0x0001f3ac        0x4 
 .text._Irq_Save
                0x0001f3b0       0x24 Det.o
 *fill*         0x0001f3d4        0xc 
 .text._Irq_Restore
                0x0001f3e0       0x20 Det.o
 .text.Det_Init
                0x0001f400       0xf0 Det.o
                0x0001f400                Det_Init
 .text.Det_ReportError
                0x0001f4f0      0x130 Det.o
                0x0001f4f0                Det_ReportError
 .text.Det_Start
                0x0001f620       0x24 Det.o
                0x0001f620                Det_Start
 *fill*         0x0001f644        0xc 
 .text._Irq_Save
                0x0001f650       0x24 Com_Com.o
 *fill*         0x0001f674        0xc 
 .text._Irq_Restore
                0x0001f680       0x20 Com_Com.o
 .text.Com_SendSignal
                0x0001f6a0      0x2fc Com_Com.o
                0x0001f6a0                Com_SendSignal
 *fill*         0x0001f99c        0x4 
 .text.Com_ReceiveSignal
                0x0001f9a0      0x234 Com_Com.o
                0x0001f9a0                Com_ReceiveSignal
 *fill*         0x0001fbd4        0xc 
 .text.Com_ReceiveDynSignal
                0x0001fbe0      0x240 Com_Com.o
                0x0001fbe0                Com_ReceiveDynSignal
 .text.Com_SendDynSignal
                0x0001fe20      0x374 Com_Com.o
                0x0001fe20                Com_SendDynSignal
 *fill*         0x00020194        0xc 
 .text.Com_TriggerTransmit
                0x000201a0      0x13c Com_Com.o
                0x000201a0                Com_TriggerTransmit
 *fill*         0x000202dc        0x4 
 .text.Com_TriggerIPDUSend
                0x000202e0      0x324 Com_Com.o
                0x000202e0                Com_TriggerIPDUSend
 *fill*         0x00020604        0xc 
 .text.Com_RxIndication
                0x00020610      0x1a4 Com_Com.o
                0x00020610                Com_RxIndication
 *fill*         0x000207b4        0xc 
 .text.Com_TpRxIndication
                0x000207c0      0x164 Com_Com.o
                0x000207c0                Com_TpRxIndication
 *fill*         0x00020924        0xc 
 .text.Com_TpTxConfirmation
                0x00020930       0x9c Com_Com.o
                0x00020930                Com_TpTxConfirmation
 *fill*         0x000209cc        0x4 
 .text.Com_TxConfirmation
                0x000209d0      0x17c Com_Com.o
                0x000209d0                Com_TxConfirmation
 *fill*         0x00020b4c        0x4 
 .text.Com_SendSignalGroup
                0x00020b50      0x2f8 Com_Com.o
                0x00020b50                Com_SendSignalGroup
 *fill*         0x00020e48        0x8 
 .text.Com_ReceiveSignalGroup
                0x00020e50      0x144 Com_Com.o
                0x00020e50                Com_ReceiveSignalGroup
 *fill*         0x00020f94        0xc 
 .text.Com_UpdateShadowSignal
                0x00020fa0       0xb8 Com_Com.o
                0x00020fa0                Com_UpdateShadowSignal
 *fill*         0x00021058        0x8 
 .text.Com_ReceiveShadowSignal
                0x00021060      0x110 Com_Com.o
                0x00021060                Com_ReceiveShadowSignal
 .text._Irq_Save
                0x00021170       0x24 Com_Sched.o
 *fill*         0x00021194        0xc 
 .text._Irq_Restore
                0x000211a0       0x20 Com_Sched.o
 .text.Com_MainFunctionRx
                0x000211c0      0x494 Com_Sched.o
                0x000211c0                Com_MainFunctionRx
 *fill*         0x00021654        0xc 
 .text.Com_MainFunctionTx
                0x00021660      0x3a4 Com_Sched.o
                0x00021660                Com_MainFunctionTx
 *fill*         0x00021a04        0xc 
 .text._Irq_Save
                0x00021a10       0x24 Com.o
 *fill*         0x00021a34        0xc 
 .text._Irq_Restore
                0x00021a40       0x20 Com.o
 .text.Com_Init
                0x00021a60      0x688 Com.o
                0x00021a60                Com_Init
 *fill*         0x000220e8        0x8 
 .text.Com_DeInit
                0x000220f0       0xc4 Com.o
                0x000220f0                Com_DeInit
 *fill*         0x000221b4        0xc 
 .text.Com_GetStatus
                0x000221c0       0x24 Com.o
                0x000221c0                Com_GetStatus
 *fill*         0x000221e4        0xc 
 .text.Com_IpduGroupControl
                0x000221f0      0x1ac Com.o
                0x000221f0                Com_IpduGroupControl
 *fill*         0x0002239c        0x4 
 .text.Com_ClearIpduGroupVector
                0x000223a0       0x54 Com.o
                0x000223a0                Com_ClearIpduGroupVector
 *fill*         0x000223f4        0xc 
 .text.Com_SetIpduGroup
                0x00022400       0xf8 Com.o
                0x00022400                Com_SetIpduGroup
 *fill*         0x000224f8        0x8 
 .text.Com_CopyTxData
                0x00022500      0x22c Com.o
                0x00022500                Com_CopyTxData
 *fill*         0x0002272c        0x4 
 .text.Com_CopyRxData
                0x00022730      0x248 Com.o
                0x00022730                Com_CopyRxData
 *fill*         0x00022978        0x8 
 .text.Com_SetDynSignalLength
                0x00022980       0xf0 Com.o
 .text.Com_StartOfReception
                0x00022a70      0x1b0 Com.o
                0x00022a70                Com_StartOfReception
 .text._Irq_Save
                0x00022c20       0x24 Com_misc.o
 *fill*         0x00022c44        0xc 
 .text._Irq_Restore
                0x00022c50       0x20 Com_misc.o
 .text.Com_CopySignalGroupDataFromShadowBufferToPdu
                0x00022c70      0x228 Com_misc.o
                0x00022c70                Com_CopySignalGroupDataFromShadowBufferToPdu
 *fill*         0x00022e98        0x8 
 .text.Com_CopySignalGroupDataFromPduToShadowBuffer
                0x00022ea0      0x1b0 Com_misc.o
                0x00022ea0                Com_CopySignalGroupDataFromPduToShadowBuffer
 .text.Com_ReadSignalDataFromPduBuffer
                0x00023050      0x43c Com_misc.o
                0x00023050                Com_ReadSignalDataFromPduBuffer
 *fill*         0x0002348c        0x4 
 .text.Com_WriteSignalDataToPdu
                0x00023490       0xa4 Com_misc.o
                0x00023490                Com_WriteSignalDataToPdu
 *fill*         0x00023534        0xc 
 .text.Com_WriteSignalDataToPduBuffer
                0x00023540      0x734 Com_misc.o
                0x00023540                Com_WriteSignalDataToPduBuffer
 *fill*         0x00023c74        0xc 
 .text.Com_ReadDataSegment
                0x00023c80      0x464 Com_misc.o
 *fill*         0x000240e4        0xc 
 .text.Com_WriteDataSegment
                0x000240f0      0x3f0 Com_misc.o
 .text.motorolaBitNrToPduOffset
                0x000244e0       0x68 Com_misc.o
                0x000244e0                motorolaBitNrToPduOffset
 *fill*         0x00024548        0x8 
 .text.intelBitNrToPduOffset
                0x00024550       0x48 Com_misc.o
                0x00024550                intelBitNrToPduOffset
 *fill*         0x00024598        0x8 
 .text.Com_RxProcessSignals
                0x000245a0      0x1c4 Com_misc.o
                0x000245a0                Com_RxProcessSignals
 *fill*         0x00024764        0xc 
 .text.UnlockTpBuffer
                0x00024770       0x5c Com_misc.o
                0x00024770                UnlockTpBuffer
 *fill*         0x000247cc        0x4 
 .text.isPduBufferLocked
                0x000247d0       0x6c Com_misc.o
                0x000247d0                isPduBufferLocked
 *fill*         0x0002483c        0x4 
 .text.getPduId
                0x00024840       0x4c Com_misc.o
                0x00024840                getPduId
 *fill*         0x0002488c        0x4 
 .text.Com_Internal_UpdateShadowSignal
                0x00024890       0x68 Com_misc.o
                0x00024890                Com_Internal_UpdateShadowSignal
 *fill*         0x000248f8        0x8 
 .text.SetTxConfirmationStatus
                0x00024900       0x7c Com_misc.o
                0x00024900                SetTxConfirmationStatus
 *fill*         0x0002497c        0x4 
 .text.GetTxConfirmationStatus
                0x00024980       0x90 Com_misc.o
                0x00024980                GetTxConfirmationStatus
 .text.IoHwAb_Digital_CalcWheelSpeed
                0x00024a10      0x158 IoHwAb_Digital.o
 *fill*         0x00024b68        0x8 
 .text.IoHw_Read_AdcSensor
                0x00024b70       0x30 IoHwAb_Digital.o
                0x00024b70                IoHw_Read_AdcSensor
 .text.IoHw_Read_FrontWheelSensor
                0x00024ba0       0x40 IoHwAb_Digital.o
                0x00024ba0                IoHw_Read_FrontWheelSensor
 .text.IoHw_Read_RearWheelSensor
                0x00024be0       0x40 IoHwAb_Digital.o
                0x00024be0                IoHw_Read_RearWheelSensor
 .text.IoHw_WriteSpeed_DutyCycle
                0x00024c20      0x104 IoHwAb_Digital.o
                0x00024c20                IoHw_WriteSpeed_DutyCycle
 *fill*         0x00024d24        0xc 
 .text.IoHw_WriteServo_DutyCycle
                0x00024d30      0x104 IoHwAb_Digital.o
                0x00024d30                IoHw_WriteServo_DutyCycle
 *fill*         0x00024e34        0xc 
 .text.IoHw_Write_Led
                0x00024e40       0x94 IoHwAb_Digital.o
                0x00024e40                IoHw_Write_Led
 *fill*         0x00024ed4        0xc 
 .text.ramlog_chr
                0x00024ee0       0x6c ramlog.o
                0x00024ee0                ramlog_chr
 *fill*         0x00024f4c        0x4 
 .text.ramlog_fputs
                0x00024f50       0x48 ramlog.o
                0x00024f50                ramlog_fputs
 *fill*         0x00024f98        0x8 
 .text.ramlog_puts
                0x00024fa0       0x28 ramlog.o
                0x00024fa0                ramlog_puts
 *fill*         0x00024fc8        0x8 
 .text.ramlog_printf
                0x00024fd0       0x68 ramlog.o
                0x00024fd0                ramlog_printf
 *fill*         0x00025038        0x8 
 .text.ramlog_init
                0x00025040       0x40 ramlog.o
                0x00025040                ramlog_init
 .text.Ramlog_Write
                0x00025080       0x68 ramlog.o
 *fill*         0x000250e8        0x8 
 .text.Ramlog_Open
                0x000250f0       0x2c ramlog.o
 *fill*         0x0002511c        0x4 
 .text._Irq_Save
                0x00025120       0x24 cirq_buffer.o
 *fill*         0x00025144        0xc 
 .text._Irq_Restore
                0x00025150       0x20 cirq_buffer.o
 .text.CirqBuff_Init
                0x00025170       0x98 cirq_buffer.o
                0x00025170                CirqBuff_Init
 *fill*         0x00025208        0x8 
 .text.CirqBuffStatCreate
                0x00025210       0x90 cirq_buffer.o
                0x00025210                CirqBuffStatCreate
 .text.CirqBuffDynCreate
                0x000252a0       0xc8 cirq_buffer.o
                0x000252a0                CirqBuffDynCreate
 *fill*         0x00025368        0x8 
 .text.CirqBuffDynDestroy
                0x00025370       0x38 cirq_buffer.o
                0x00025370                CirqBuffDynDestroy
 *fill*         0x000253a8        0x8 
 .text.CirqBuffPush
                0x000253b0       0xe4 cirq_buffer.o
                0x000253b0                CirqBuffPush
 *fill*         0x00025494        0xc 
 .text.CirqBuffPop
                0x000254a0       0xdc cirq_buffer.o
                0x000254a0                CirqBuffPop
 *fill*         0x0002557c        0x4 
 .text.CirqBuff_PushLock
                0x00025580       0xa0 cirq_buffer.o
                0x00025580                CirqBuff_PushLock
 .text.CirqBuff_PopLock
                0x00025620       0xac cirq_buffer.o
                0x00025620                CirqBuff_PopLock
 *fill*         0x000256cc        0x4 
 .text._open    0x000256d0       0xc8 clib_port.o
                0x000256d0                _open
 *fill*         0x00025798        0x8 
 .text._fstat   0x000257a0       0x34 clib_port.o
                0x000257a0                _fstat
 *fill*         0x000257d4        0xc 
 .text._getpid  0x000257e0       0x1c clib_port.o
                0x000257e0                _getpid
 *fill*         0x000257fc        0x4 
 .text._kill    0x00025800       0x38 clib_port.o
                0x00025800                _kill
 *fill*         0x00025838        0x8 
 .text._close   0x00025840       0x24 clib_port.o
                0x00025840                _close
 *fill*         0x00025864        0xc 
 .text._isatty  0x00025870       0x24 clib_port.o
                0x00025870                _isatty
 *fill*         0x00025894        0xc 
 .text._sbrk    0x000258a0       0xa4 clib_port.o
                0x000258a0                _sbrk
 *fill*         0x00025944        0xc 
 .text._read    0x00025950       0x48 clib_port.o
                0x00025950                _read
 *fill*         0x00025998        0x8 
 .text._write   0x000259a0       0x48 clib_port.o
                0x000259a0                _write
 *fill*         0x000259e8        0x8 
 .text._lseek   0x000259f0       0x3c clib_port.o
                0x000259f0                _lseek
 *fill*         0x00025a2c        0x4 
 .text.__init   0x00025a30       0x14 clib_port.o
                0x00025a30                __init
 *fill*         0x00025a44        0xc 
 .text._exit    0x00025a50       0x1c clib_port.o
                0x00025a50                _exit
 *fill*         0x00025a6c        0x4 
 .text.fputc    0x00025a70       0x50 printf.o
                0x00025a70                fputc
 .text.fputs    0x00025ac0       0x58 printf.o
                0x00025ac0                fputs
 *fill*         0x00025b18        0x8 
 .text.autosar_fgetc
                0x00025b20       0x40 printf.o
                0x00025b20                autosar_fgetc
 .text.autosar_fgets
                0x00025b60       0x48 printf.o
                0x00025b60                autosar_fgets
 *fill*         0x00025ba8        0x8 
 .text.printf   0x00025bb0       0x54 printf.o
                0x00025bb0                printf
 *fill*         0x00025c04        0xc 
 .text.fprintf  0x00025c10       0x48 printf.o
                0x00025c10                fprintf
 *fill*         0x00025c58        0x8 
 .text.sprintf  0x00025c60       0x4c printf.o
                0x00025c60                sprintf
 *fill*         0x00025cac        0x4 
 .text.snprintf
                0x00025cb0       0x50 printf.o
                0x00025cb0                snprintf
 .text.vprintf  0x00025d00       0x44 printf.o
                0x00025d00                vprintf
 *fill*         0x00025d44        0xc 
 .text.vsprintf
                0x00025d50       0x3c printf.o
                0x00025d50                vsprintf
 *fill*         0x00025d8c        0x4 
 .text.vfprintf
                0x00025d90       0x48 printf.o
                0x00025d90                vfprintf
 *fill*         0x00025dd8        0x8 
 .text.vsnprintf
                0x00025de0       0x50 printf.o
                0x00025de0                vsnprintf
 .text.emitChar
                0x00025e30       0x9c printf.o
 *fill*         0x00025ecc        0x4 
 .text.emitString
                0x00025ed0      0x1a0 printf.o
 .text.emitInt  0x00026070       0x9c printf.o
                0x00026070                emitInt
 *fill*         0x0002610c        0x4 
 .text.print    0x00026110      0x480 printf.o
                0x00026110                print
 .text.xtoa     0x00026590      0x180 xtoa.o
                0x00026590                xtoa
 .text.ultoa    0x00026710       0x34 xtoa.o
                0x00026710                ultoa
 *fill*         0x00026744        0xc 
 .text.itoa     0x00026750       0x48 xtoa.o
                0x00026750                itoa
 *fill*         0x00026798        0x8 
 .text.Pwm_ConfigureDma
                0x000267a0      0x1a0 Pwm.o
 .text.Pwm_ConfigureChannel
                0x00026940      0x10c Pwm.o
 *fill*         0x00026a4c        0x4 
 .text.Pwm_GeneratePulse
                0x00026a50      0x360 Pwm.o
 .text.Pwm_Init
                0x00026db0      0x1b4 Pwm.o
                0x00026db0                Pwm_Init
 *fill*         0x00026f64        0xc 
 .text.Pwm_DeInit
                0x00026f70      0x240 Pwm.o
                0x00026f70                Pwm_DeInit
 .text.Pwm_SetDutyCycle
                0x000271b0       0x60 Pwm.o
                0x000271b0                Pwm_SetDutyCycle
 .text.Pwm_SetPeriodAndDuty
                0x00027210       0xd8 Pwm.o
                0x00027210                Pwm_SetPeriodAndDuty
 *fill*         0x000272e8        0x8 
 .text.Pwm_SetOutputToIdle
                0x000272f0       0x20 Pwm.o
                0x000272f0                Pwm_SetOutputToIdle
 .text.Pwm_GetOutputState
                0x00027310       0x28 Pwm.o
                0x00027310                Pwm_GetOutputState
 *fill*         0x00027338        0x8 
 .text.Pwm_DisableNotification
                0x00027340       0x20 Pwm.o
                0x00027340                Pwm_DisableNotification
 .text.Pwm_EnableNotification
                0x00027360       0x28 Pwm.o
                0x00027360                Pwm_EnableNotification
 *(.rodata)
 *fill*         0x00027388        0x8 
 .rodata        0x00027390       0x10 Rte.o
 .rodata        0x000273a0        0x8 Rte_AdcSWC.o
                0x000273a0                AdcSWC_AdcSWCProto
                0x000273a4                Rte_Inst_AdcSWC
 *fill*         0x000273a8        0x8 
 .rodata        0x000273b0        0x8 Rte_FrontWheelSWC.o
                0x000273b0                FrontWheelSWC_FrontWheelSWCProto
                0x000273b4                Rte_Inst_FrontWheelSWC
 *fill*         0x000273b8        0x8 
 .rodata        0x000273c0        0x8 Rte_IoHwAb.o
                0x000273c0                IoHwAb_IoHwAbProto
                0x000273c4                Rte_Inst_IoHwAb
 *fill*         0x000273c8        0x8 
 .rodata        0x000273d0        0x8 Rte_LedSWC.o
                0x000273d0                LedSWC_LedSWCProto
                0x000273d4                Rte_Inst_LedSWC
 *fill*         0x000273d8        0x8 
 .rodata        0x000273e0       0x14 Rte_MotorSWC.o
                0x000273e0                MotorSWC_MotorSWCProto
                0x000273f0                Rte_Inst_MotorSWC
 *fill*         0x000273f4        0xc 
 .rodata        0x00027400       0x5c Rte_PirteSWC.o
                0x00027400                PirteSWC_PirteSWCProto
                0x00027458                Rte_Inst_PirteSWC
 *fill*         0x0002745c        0x4 
 .rodata        0x00027460        0x8 Rte_RearWheelSWC.o
                0x00027460                RearWheelSWC_RearWheelSWCProto
                0x00027464                Rte_Inst_RearWheelSWC
 *fill*         0x00027468        0x8 
 .rodata        0x00027470       0x14 Rte_ServoSWC.o
                0x00027470                ServoSWC_ServoSWCProto
                0x00027480                Rte_Inst_ServoSWC
 *fill*         0x00027484        0xc 
 .rodata        0x00027490        0x4 /home/avenir/Documents/dev/eclipse_ws/moped/src/core/boards/Raspberry_Pi/config/simple_stdio.o
 *fill*         0x00027494        0xc 
 .rodata        0x000274a0       0x40 java.o
 .rodata        0x000274e0       0x38 main.o
 *fill*         0x00027518        0x8 
 .rodata        0x00027520       0x3c system_hooks.o
 *fill*         0x0002755c        0x4 
 .rodata        0x00027560       0x38 vcu_platform.o
 *fill*         0x00027598        0x8 
 .rodata        0x000275a0       0x28 bcm2835.o
 *fill*         0x000275c8        0x8 
 .rodata        0x000275d0       0x60 SpeedSensor.o
 .rodata        0x00027630      0x2bc Os_Cfg.o
                0x00027630                OsTickFreq
                0x00027634                Os_AppConst
                0x0002765c                Os_AlarmAutoStart_ALARM_ID_CanFunctionAlarm
                0x0002766c                Os_AlarmAutoStart_ALARM_ID_RteFunctionAlarm
                0x0002767c                Os_AlarmAutoStart_ALARM_ID_SensorAlarm
                0x0002768c                Os_AlarmAutoStart_ALARM_ID_SquawkAlarm
                0x000276dc                Os_TaskConstList
                0x000278d4                os_conf_global_hooks
 *fill*         0x000278ec        0x4 
 .rodata        0x000278f0       0x18 EcuM_PBcfg.o
                0x000278f0                EcuM_SleepModeConfig
                0x000278fc                EcuM_WakeupSourceConfig
 *fill*         0x00027908        0x8 
 .rodata        0x00027910       0x28 EcuM_PBHeader.o
                0x00027910                Postbuild_Config
 *fill*         0x00027938        0x8 
 .rodata        0x00027940       0x50 EcuM_Callout_Stubs.o
 .rodata        0x00027990       0x18 Dma_Cfg.o
                0x00027990                DmaChannelConfig
                0x000279a0                DmaConfig
 *fill*         0x000279a8        0x8 
 .rodata        0x000279b0        0xc Mcu_Cfg.o
                0x000279b0                McuConfigData
 *fill*         0x000279bc        0x4 
 .rodata        0x000279c0       0x3c Can.o
 *fill*         0x000279fc        0x4 
 .rodata        0x00027a00       0x34 CanIf_Cfg.o
                0x00027a00                CanIfUserRxIndications
                0x00027a10                CanIfUserTxConfirmations
                0x00027a20                CanIfDispatchConfig
 *fill*         0x00027a34        0xc 
 .rodata        0x00027a40      0x148 CanIf_PBCfg.o
                0x00027a40                CanIfHthConfigData_CanIfInitHohCfg
                0x00027a44                CanIfHrhConfigData_CanIfInitHohCfg
                0x00027a50                CanIfHohConfigData
                0x00027a5c                CanIfBufferCfgData
                0x00027a64                CanIfTxPduConfigData
                0x00027aac                CanIfRxPduConfigData
                0x00027b4c                CanIfCtrlCfg_BufferList
                0x00027b50                CanIf_Arc_ChannelConfig
                0x00027b58                CanIfInitConfig
                0x00027b7c                CanIf_Config
 *fill*         0x00027b88        0x8 
 .rodata        0x00027b90       0x18 Dio.o
 *fill*         0x00027ba8        0x8 
 .rodata        0x00027bb0       0x1c Dio_Lcfg.o
                0x00027bb0                DioChannelConfigData
                0x00027bb8                DioPortConfigData
                0x00027bc0                DioConfigData
 *fill*         0x00027bcc        0x4 
 .rodata        0x00027bd0       0x24 Port_Cfg.o
                0x00027bd0                PortConfigData
 *fill*         0x00027bf4        0xc 
 .rodata        0x00027c00       0x18 arch.o
 *fill*         0x00027c18        0x8 
 .rodata        0x00027c20       0x10 resource.o
 .rodata        0x00027c30       0x24 sys_tick.o
 *fill*         0x00027c54        0xc 
 .rodata        0x00027c60      0x140 Spi_Lcfg.o
                0x00027c60                SpiSequenceConfigData
                0x00027cb0                SpiJobConfigData
                0x00027d10                SpiChannelConfigData
                0x00027d74                SpiExternalConfigData
                0x00027d8c                SpiConfigData
 .rodata        0x00027da0       0x20 Pwm_Cfg.o
                0x00027da0                PwmConfig
 .rodata        0x00027dc0        0xc Com_Cfg.o
                0x00027dc0                ComNotificationCallouts
                0x00027dc4                ComRxIPduCallouts
                0x00027dc8                ComTxIPduCallouts
 *fill*         0x00027dcc        0x4 
 .rodata        0x00027dd0      0x500 Com_PbCfg.o
                0x00027dd0                Com_SignalInitValue_pluginInstallationVCUsignal
                0x00027dd8                Com_SignalInitValue_pluginCommunicationVCUtoTCUsignal
                0x00027de0                Com_SignalInitValue_pluginCommunicationTCUtoVCUsignal
                0x00027de8                Com_SignalInitValue_acknowledgementVCUsignal
                0x00027dec                Com_SignalInitValue_driverSetSpeedSteeringSignal
                0x00027df0                Com_SignalInitValue_pluginCommunicationVCUtoSCUSignal
                0x00027df8                Com_SignalInitValue_pluginCommunicationSCUtoVCUSignal
                0x00027e00                Com_SignalInitValue_positionDataSignal
                0x00027e08                ComGroupSignal
                0x00027e18                ComSignal
                0x00028034                ComIPduGroup
                0x00028040                ComIPduSignalRefs_pluginInstallationVCUComIPdu
                0x00028048                ComIPduSignalRefs_alacknowledgementVCUComIPdu
                0x00028050                ComIPduSignalRefs_pluginCommunicationTCUtoVCUComIPdu
                0x00028058                ComIPduSignalRefs_pluginCommunicationVCUtoTCUComIPdu
                0x00028060                ComIPduSignalRefs_driverSetSpeedSteeringComIPdu
                0x00028068                ComIPduSignalRefs_pluginCommunicationSCUtoVCUComIPdu
                0x00028070                ComIPduSignalRefs_pluginCommunicationVCUtoSCUComIPdu
                0x00028078                ComIPduSignalRefs_positionDataComIPdu
                0x00028080                ComIpduGroupRefs_pluginInstallationVCUComIPdu
                0x00028088                ComIpduGroupRefs_alacknowledgementVCUComIPdu
                0x00028090                ComIpduGroupRefs_pluginCommunicationTCUtoVCUComIPdu
                0x00028098                ComIpduGroupRefs_pluginCommunicationVCUtoTCUComIPdu
                0x000280a0                ComIpduGroupRefs_driverSetSpeedSteeringComIPdu
                0x000280a8                ComIpduGroupRefs_pluginCommunicationSCUtoVCUComIPdu
                0x000280b0                ComIpduGroupRefs_pluginCommunicationVCUtoSCUComIPdu
                0x000280b8                ComIpduGroupRefs_positionDataComIPdu
                0x000280c0                ComIPdu
                0x000282b8                ComConfiguration
 .rodata        0x000282d0        0x4 Com.o
 *fill*         0x000282d4        0xc 
 .rodata        0x000282e0       0x10 PduR_PbCfg.o
                0x000282e0                PduR_Config
 .rodata        0x000282f0       0x20 IoHwAb_Digital.o
 .rodata        0x00028310        0xc ramlog.o
 *fill*         0x0002831c        0x4 
 .rodata        0x00028320       0x10 clib_port.o
 .rodata        0x00028330        0x8 printf.o
 *fill*         0x00028338        0x8 
 .rodata        0x00028340       0x14 xtoa.o
 *fill*         0x00028354        0xc 
 .rodata        0x00028360       0xd0 Can_PBcfg.o
                0x00028360                CanHardwareObjectConfig_CanController
                0x00028398                CanControllerConfigData
                0x00028408                CanCallbackConfigData
                0x00028420                CanConfigSetData
                0x00028428                CanConfigData
 .rodata        0x00028430       0x58 Pwm.o
 *fill*         0x00028488        0x8 
 .rodata        0x00028490        0x4 /opt/CodeSourcery/Sourcery_CodeBench_Lite_for_ARM_EABI/bin/../lib/gcc/arm-none-eabi/4.7.3/../../../../arm-none-eabi/lib/libc.a(lib_a-impure.o)
                0x00028490                _global_impure_ptr
 *fill*         0x00028494        0xc 
 .rodata        0x000284a0      0x104 /opt/CodeSourcery/Sourcery_CodeBench_Lite_for_ARM_EABI/bin/../lib/gcc/arm-none-eabi/4.7.3/../../../../arm-none-eabi/lib/libc.a(lib_a-ctype_.o)
                0x000284a0                _ctype_
 *(.rodata.*)
 *fill*         0x000285a4        0xc 
 .rodata.str1.4
                0x000285b0        0x4 /opt/CodeSourcery/Sourcery_CodeBench_Lite_for_ARM_EABI/bin/../lib/gcc/arm-none-eabi/4.7.3/../../../../arm-none-eabi/lib/libc.a(lib_a-impure.o)
 *(.glue_7t)
 .glue_7t       0x00000000        0x0 linker stubs
 *(.glue_7)
 .glue_7        0x00000000        0x0 linker stubs
 *(.gcc*)
 *(.ctors)
 *(.dtors)

.vfp11_veneer   0x000285b4        0x0
 .vfp11_veneer  0x00000000        0x0 linker stubs

.v4_bx          0x000285b4        0x0
 .v4_bx         0x00000000        0x0 linker stubs

.iplt           0x000285b4        0x0
 .iplt          0x00000000        0x0 Rte.o

.rel.dyn        0x000285b4        0x0
 .rel.iplt      0x00000000        0x0 Rte.o

.ARM.extab
 *(.ARM.extab* .gnu.linkonce.armextab.*)
                0x000285b4                __exidx_start = .

.ARM.exidx
 *(.ARM.exidx* .gnu.linkonce.armexidx.*)
                0x000285b4                __exidx_end = .

.eh_frame_hdr
 *(.eh_frame_hdr)

.eh_frame
 *(.eh_frame)
                0x000285b4                . = ALIGN (0x4)
                0x000285b4                _etext = .
                0x000285b4                _textdata = _etext

.data           0x000285b8      0xa64
                0x000285b8                _data = .
 *(.data)
 .data          0x000285b8        0x0 Rte.o
 .data          0x000285b8        0x0 Rte_Main.o
 .data          0x000285b8        0x0 Rte_Calprms.o
 .data          0x000285b8        0x0 Rte_Internal.o
 .data          0x000285b8        0x0 Rte_Callbacks.o
 .data          0x000285b8        0x0 Rte_AdcSWC.o
 .data          0x000285b8        0x0 Rte_FrontWheelSWC.o
 .data          0x000285b8        0x0 Rte_IoHwAb.o
 .data          0x000285b8        0x0 Rte_LedSWC.o
 .data          0x000285b8        0x0 Rte_MotorSWC.o
 .data          0x000285b8        0x0 Rte_PirteSWC.o
 .data          0x000285b8        0x0 Rte_RearWheelSWC.o
 .data          0x000285b8        0x0 Rte_ServoSWC.o
 .data          0x000285b8        0x0 /home/avenir/Documents/dev/eclipse_ws/moped/src/core/boards/Raspberry_Pi/config/simple_stdio.o
 .data          0x000285b8        0x0 Actuator_Led.o
 .data          0x000285b8        0x0 Actuator_MotorSpeed.o
 .data          0x000285b8        0x0 Actuator_ServoDirection.o
 .data          0x000285b8        0x0 IoHwAb.o
 .data          0x000285b8        0x0 java.o
 .data          0x000285b8        0x0 main.o
 .data          0x000285b8        0x0 Sensor_Adc.o
 .data          0x000285b8        0x0 Sensor_FrontWheel.o
 .data          0x000285b8        0x0 Sensor_RearWheel.o
 .data          0x000285b8        0x0 system_hooks.o
 .data          0x000285b8        0x1 vcu_platform.o
                0x000285b8                WriteframeType
 .data          0x000285b9        0x0 crt0.o
 .data          0x000285b9        0x0 led.o
 .data          0x000285b9        0x0 bcm2835.o
 *fill*         0x000285b9        0x3 
 .data          0x000285bc        0xc Uart.o
                0x000285bc                result_channel
                0x000285c0                totalValidDataSize
                0x000285c4                tmp
 .data          0x000285c8        0x0 SpeedSensor.o
 .data          0x000285c8        0x0 Mcp3008.o
 .data          0x000285c8        0x0 UltrasonicSensor.o
 .data          0x000285c8      0x128 Os_Cfg.o
                0x000285c8                counter_list
                0x00028600                alarm_list
 .data          0x000286f0        0x0 EcuM.o
 .data          0x000286f0        0x0 EcuM_Fixed.o
 .data          0x000286f0        0x0 EcuM_Main.o
 .data          0x000286f0       0x50 EcuM_PBcfg.o
                0x000286f0                EcuMConfig
 .data          0x00028740        0x0 EcuM_PBHeader.o
 .data          0x00028740        0x0 EcuM_Callout_Stubs.o
 .data          0x00028740        0x0 Dma.o
 .data          0x00028740        0x0 Dma_Cfg.o
 .data          0x00028740       0x14 Mcu.o
                0x00028740                Mcu_Global
 .data          0x00028754        0xc Mcu_Cfg.o
                0x00028754                Mcu_ClockSettingConfigData
 .data          0x00028760        0x0 Can.o
 .data          0x00028760        0x0 CanIf.o
 .data          0x00028760        0x0 CanIf_Cfg.o
 .data          0x00028760        0x0 CanIf_PBCfg.o
 .data          0x00028760        0x0 Dio.o
 .data          0x00028760        0x0 Dio_Lcfg.o
 .data          0x00028760        0x0 Port.o
 .data          0x00028760        0x0 Port_Cfg.o
 .data          0x00028760        0x0 arch_krn.o
 .data          0x00028760        0x0 event.o
 .data          0x00028760        0x0 os_init.o
 .data          0x00028760        0x0 arch.o
 .data          0x00028760        0x0 task.o
 .data          0x00028760        0x0 resource.o
 .data          0x00028760        0x0 alarm.o
 .data          0x00028760        0x0 sched_table.o
 .data          0x00028760        0x0 counter.o
 .data          0x00028760        0x1 sys_tick.o
                0x00028760                led_flag
 .data          0x00028761        0x0 isr.o
 .data          0x00028761        0x0 os_arctest.o
 .data          0x00028761        0x0 application.o
 .data          0x00028761        0x0 irq.o
 .data          0x00028761        0x0 Spi.o
 .data          0x00028761        0x0 Spi_Lcfg.o
 .data          0x00028761        0x0 Pwm_Cfg.o
 .data          0x00028761        0x0 Det.o
 .data          0x00028761        0x0 Det_Cfg.o
 .data          0x00028761        0x0 Com_Cfg.o
 .data          0x00028761        0x0 Com_PbCfg.o
 .data          0x00028761        0x0 Com_Com.o
 .data          0x00028761        0x0 Com_Sched.o
 *fill*         0x00028761        0x3 
 .data          0x00028764        0xc Com.o
                0x00028764                Com_Arc_Config
 .data          0x00028770        0x0 Com_misc.o
 .data          0x00028770        0x0 PduR_CanNm.o
 .data          0x00028770        0x0 PduR_Com.o
 .data          0x00028770        0x0 PduR_Logic.o
 .data          0x00028770        0x0 PduR_LinIf.o
 .data          0x00028770        0x0 PduR_PbCfg.o
 .data          0x00028770        0x0 PduR_Cfg.o
 .data          0x00028770        0x0 PduR_CanIf.o
 .data          0x00028770        0x0 PduR_CanTp.o
 .data          0x00028770        0x0 PduR_J1939Tp.o
 .data          0x00028770        0x0 PduR_IpduM.o
 .data          0x00028770        0x0 PduR_Dcm.o
 .data          0x00028770        0x0 PduR_SoAd.o
 .data          0x00028770        0x0 PduR_Routing.o
 .data          0x00028770        0x0 PduR.o
 .data          0x00028770        0x0 IoHwAb_Digital.o
 .data          0x00028770        0x0 IoHwAb_Analog.o
 .data          0x00028770        0x0 IoHwAb_Pwm.o
 .data          0x00028770       0x2c ramlog.o
                0x00028770                Ramlog_Device
 .data          0x0002879c        0x0 cirq_buffer.o
 .data          0x0002879c       0x10 clib_port.o
                0x0002879c                deviceList
                0x000287a0                fileList
 .data          0x000287ac       0x28 clib.o
                0x000287ac                stdFiles
                0x000287c4                __Env
                0x000287d0                _EnvPtr
 .data          0x000287d4        0x0 printf.o
 .data          0x000287d4        0x0 xtoa.o
 .data          0x000287d4        0x0 Can_PBcfg.o
 .data          0x000287d4        0x4 Pwm.o
 .data          0x000287d8        0x0 /opt/CodeSourcery/Sourcery_CodeBench_Lite_for_ARM_EABI/bin/../lib/gcc/arm-none-eabi/4.7.3/libgcc.a(_udivsi3.o)
 .data          0x000287d8        0x0 /opt/CodeSourcery/Sourcery_CodeBench_Lite_for_ARM_EABI/bin/../lib/gcc/arm-none-eabi/4.7.3/libgcc.a(_divsi3.o)
 .data          0x000287d8        0x0 /opt/CodeSourcery/Sourcery_CodeBench_Lite_for_ARM_EABI/bin/../lib/gcc/arm-none-eabi/4.7.3/libgcc.a(_dvmd_tls.o)
 .data          0x000287d8        0x0 /opt/CodeSourcery/Sourcery_CodeBench_Lite_for_ARM_EABI/bin/../lib/gcc/arm-none-eabi/4.7.3/libgcc.a(_arm_addsubdf3.o)
 .data          0x000287d8        0x0 /opt/CodeSourcery/Sourcery_CodeBench_Lite_for_ARM_EABI/bin/../lib/gcc/arm-none-eabi/4.7.3/libgcc.a(_arm_muldivdf3.o)
 .data          0x000287d8        0x0 /opt/CodeSourcery/Sourcery_CodeBench_Lite_for_ARM_EABI/bin/../lib/gcc/arm-none-eabi/4.7.3/libgcc.a(_arm_fixdfsi.o)
 .data          0x000287d8        0x0 /opt/CodeSourcery/Sourcery_CodeBench_Lite_for_ARM_EABI/bin/../lib/gcc/arm-none-eabi/4.7.3/libgcc.a(_arm_fixunsdfsi.o)
 .data          0x000287d8        0x0 /opt/CodeSourcery/Sourcery_CodeBench_Lite_for_ARM_EABI/bin/../lib/gcc/arm-none-eabi/4.7.3/libgcc.a(_arm_truncdfsf2.o)
 .data          0x000287d8        0x0 /opt/CodeSourcery/Sourcery_CodeBench_Lite_for_ARM_EABI/bin/../lib/gcc/arm-none-eabi/4.7.3/libgcc.a(_arm_addsubsf3.o)
 .data          0x000287d8        0x0 /opt/CodeSourcery/Sourcery_CodeBench_Lite_for_ARM_EABI/bin/../lib/gcc/arm-none-eabi/4.7.3/libgcc.a(_arm_muldivsf3.o)
 .data          0x000287d8        0x0 /opt/CodeSourcery/Sourcery_CodeBench_Lite_for_ARM_EABI/bin/../lib/gcc/arm-none-eabi/4.7.3/libgcc.a(_arm_fixsfsi.o)
 .data          0x000287d8        0x0 /opt/CodeSourcery/Sourcery_CodeBench_Lite_for_ARM_EABI/bin/../lib/gcc/arm-none-eabi/4.7.3/libgcc.a(_arm_fixunssfsi.o)
 .data          0x000287d8        0x0 /opt/CodeSourcery/Sourcery_CodeBench_Lite_for_ARM_EABI/bin/../lib/gcc/arm-none-eabi/4.7.3/../../../../arm-none-eabi/lib/libc.a(lib_a-abort.o)
 .data          0x000287d8        0x0 /opt/CodeSourcery/Sourcery_CodeBench_Lite_for_ARM_EABI/bin/../lib/gcc/arm-none-eabi/4.7.3/../../../../arm-none-eabi/lib/libc.a(lib_a-fileno.o)
 .data          0x000287d8        0x0 /opt/CodeSourcery/Sourcery_CodeBench_Lite_for_ARM_EABI/bin/../lib/gcc/arm-none-eabi/4.7.3/../../../../arm-none-eabi/lib/libc.a(lib_a-findfp.o)
 .data          0x000287d8        0x0 /opt/CodeSourcery/Sourcery_CodeBench_Lite_for_ARM_EABI/bin/../lib/gcc/arm-none-eabi/4.7.3/../../../../arm-none-eabi/lib/libc.a(lib_a-fopen.o)
 .data          0x000287d8        0x0 /opt/CodeSourcery/Sourcery_CodeBench_Lite_for_ARM_EABI/bin/../lib/gcc/arm-none-eabi/4.7.3/../../../../arm-none-eabi/lib/libc.a(lib_a-fseek.o)
 .data          0x000287d8        0x0 /opt/CodeSourcery/Sourcery_CodeBench_Lite_for_ARM_EABI/bin/../lib/gcc/arm-none-eabi/4.7.3/../../../../arm-none-eabi/lib/libc.a(lib_a-fstatr.o)
 .data          0x000287d8        0x0 /opt/CodeSourcery/Sourcery_CodeBench_Lite_for_ARM_EABI/bin/../lib/gcc/arm-none-eabi/4.7.3/../../../../arm-none-eabi/lib/libc.a(lib_a-fwalk.o)
 .data          0x000287d8      0x430 /opt/CodeSourcery/Sourcery_CodeBench_Lite_for_ARM_EABI/bin/../lib/gcc/arm-none-eabi/4.7.3/../../../../arm-none-eabi/lib/libc.a(lib_a-impure.o)
                0x000287d8                _impure_ptr
 .data          0x00028c08        0x0 /opt/CodeSourcery/Sourcery_CodeBench_Lite_for_ARM_EABI/bin/../lib/gcc/arm-none-eabi/4.7.3/../../../../arm-none-eabi/lib/libc.a(lib_a-makebuf.o)
 .data          0x00028c08        0x0 /opt/CodeSourcery/Sourcery_CodeBench_Lite_for_ARM_EABI/bin/../lib/gcc/arm-none-eabi/4.7.3/../../../../arm-none-eabi/lib/libc.a(lib_a-malloc.o)
 .data          0x00028c08      0x410 /opt/CodeSourcery/Sourcery_CodeBench_Lite_for_ARM_EABI/bin/../lib/gcc/arm-none-eabi/4.7.3/../../../../arm-none-eabi/lib/libc.a(lib_a-mallocr.o)
                0x00028c08                __malloc_av_
                0x00029010                __malloc_sbrk_base
                0x00029014                __malloc_trim_threshold
 .data          0x00029018        0x0 /opt/CodeSourcery/Sourcery_CodeBench_Lite_for_ARM_EABI/bin/../lib/gcc/arm-none-eabi/4.7.3/../../../../arm-none-eabi/lib/libc.a(lib_a-memcmp.o)
 .data          0x00029018        0x0 /opt/CodeSourcery/Sourcery_CodeBench_Lite_for_ARM_EABI/bin/../lib/gcc/arm-none-eabi/4.7.3/../../../../arm-none-eabi/lib/libc.a(lib_a-memcpy.o)
 .data          0x00029018        0x0 /opt/CodeSourcery/Sourcery_CodeBench_Lite_for_ARM_EABI/bin/../lib/gcc/arm-none-eabi/4.7.3/../../../../arm-none-eabi/lib/libc.a(lib_a-memset.o)
 .data          0x00029018        0x0 /opt/CodeSourcery/Sourcery_CodeBench_Lite_for_ARM_EABI/bin/../lib/gcc/arm-none-eabi/4.7.3/../../../../arm-none-eabi/lib/libc.a(lib_a-mlock.o)
 .data          0x00029018        0x0 /opt/CodeSourcery/Sourcery_CodeBench_Lite_for_ARM_EABI/bin/../lib/gcc/arm-none-eabi/4.7.3/../../../../arm-none-eabi/lib/libc.a(lib_a-openr.o)
 .data          0x00029018        0x0 /opt/CodeSourcery/Sourcery_CodeBench_Lite_for_ARM_EABI/bin/../lib/gcc/arm-none-eabi/4.7.3/../../../../arm-none-eabi/lib/libc.a(lib_a-reent.o)
 .data          0x00029018        0x0 /opt/CodeSourcery/Sourcery_CodeBench_Lite_for_ARM_EABI/bin/../lib/gcc/arm-none-eabi/4.7.3/../../../../arm-none-eabi/lib/libc.a(lib_a-refill.o)
 .data          0x00029018        0x0 /opt/CodeSourcery/Sourcery_CodeBench_Lite_for_ARM_EABI/bin/../lib/gcc/arm-none-eabi/4.7.3/../../../../arm-none-eabi/lib/libc.a(lib_a-sbrkr.o)
 .data          0x00029018        0x0 /opt/CodeSourcery/Sourcery_CodeBench_Lite_for_ARM_EABI/bin/../lib/gcc/arm-none-eabi/4.7.3/../../../../arm-none-eabi/lib/libc.a(lib_a-signal.o)
 .data          0x00029018        0x0 /opt/CodeSourcery/Sourcery_CodeBench_Lite_for_ARM_EABI/bin/../lib/gcc/arm-none-eabi/4.7.3/../../../../arm-none-eabi/lib/libc.a(lib_a-signalr.o)
 .data          0x00029018        0x0 /opt/CodeSourcery/Sourcery_CodeBench_Lite_for_ARM_EABI/bin/../lib/gcc/arm-none-eabi/4.7.3/../../../../arm-none-eabi/lib/libc.a(lib_a-stdio.o)
 .data          0x00029018        0x0 /opt/CodeSourcery/Sourcery_CodeBench_Lite_for_ARM_EABI/bin/../lib/gcc/arm-none-eabi/4.7.3/../../../../arm-none-eabi/lib/libc.a(lib_a-strcmp.o)
 .data          0x00029018        0x0 /opt/CodeSourcery/Sourcery_CodeBench_Lite_for_ARM_EABI/bin/../lib/gcc/arm-none-eabi/4.7.3/../../../../arm-none-eabi/lib/libc.a(lib_a-strcpy.o)
 .data          0x00029018        0x0 /opt/CodeSourcery/Sourcery_CodeBench_Lite_for_ARM_EABI/bin/../lib/gcc/arm-none-eabi/4.7.3/../../../../arm-none-eabi/lib/libc.a(lib_a-strlen.o)
 .data          0x00029018        0x0 /opt/CodeSourcery/Sourcery_CodeBench_Lite_for_ARM_EABI/bin/../lib/gcc/arm-none-eabi/4.7.3/../../../../arm-none-eabi/lib/libc.a(lib_a-strncpy.o)
 .data          0x00029018        0x0 /opt/CodeSourcery/Sourcery_CodeBench_Lite_for_ARM_EABI/bin/../lib/gcc/arm-none-eabi/4.7.3/../../../../arm-none-eabi/lib/libc.a(lib_a-strtoul.o)
 .data          0x00029018        0x0 /opt/CodeSourcery/Sourcery_CodeBench_Lite_for_ARM_EABI/bin/../lib/gcc/arm-none-eabi/4.7.3/../../../../arm-none-eabi/lib/libc.a(lib_a-sysread.o)
 .data          0x00029018        0x0 /opt/CodeSourcery/Sourcery_CodeBench_Lite_for_ARM_EABI/bin/../lib/gcc/arm-none-eabi/4.7.3/../../../../arm-none-eabi/lib/libc.a(lib_a-syswrite.o)
 .data          0x00029018        0x0 /opt/CodeSourcery/Sourcery_CodeBench_Lite_for_ARM_EABI/bin/../lib/gcc/arm-none-eabi/4.7.3/../../../../arm-none-eabi/lib/libc.a(lib_a-writer.o)
 .data          0x00029018        0x0 /opt/CodeSourcery/Sourcery_CodeBench_Lite_for_ARM_EABI/bin/../lib/gcc/arm-none-eabi/4.7.3/../../../../arm-none-eabi/lib/libc.a(lib_a-closer.o)
 .data          0x00029018        0x4 /opt/CodeSourcery/Sourcery_CodeBench_Lite_for_ARM_EABI/bin/../lib/gcc/arm-none-eabi/4.7.3/../../../../arm-none-eabi/lib/libc.a(lib_a-ctype_.o)
                0x00029018                __ctype_ptr__
 .data          0x0002901c        0x0 /opt/CodeSourcery/Sourcery_CodeBench_Lite_for_ARM_EABI/bin/../lib/gcc/arm-none-eabi/4.7.3/../../../../arm-none-eabi/lib/libc.a(lib_a-fclose.o)
 .data          0x0002901c        0x0 /opt/CodeSourcery/Sourcery_CodeBench_Lite_for_ARM_EABI/bin/../lib/gcc/arm-none-eabi/4.7.3/../../../../arm-none-eabi/lib/libc.a(lib_a-fflush.o)
 .data          0x0002901c        0x0 /opt/CodeSourcery/Sourcery_CodeBench_Lite_for_ARM_EABI/bin/../lib/gcc/arm-none-eabi/4.7.3/../../../../arm-none-eabi/lib/libc.a(lib_a-flags.o)
 .data          0x0002901c        0x0 /opt/CodeSourcery/Sourcery_CodeBench_Lite_for_ARM_EABI/bin/../lib/gcc/arm-none-eabi/4.7.3/../../../../arm-none-eabi/lib/libc.a(lib_a-freer.o)
 .data          0x0002901c        0x0 /opt/CodeSourcery/Sourcery_CodeBench_Lite_for_ARM_EABI/bin/../lib/gcc/arm-none-eabi/4.7.3/../../../../arm-none-eabi/lib/libc.a(lib_a-isattyr.o)
 .data          0x0002901c        0x0 /opt/CodeSourcery/Sourcery_CodeBench_Lite_for_ARM_EABI/bin/../lib/gcc/arm-none-eabi/4.7.3/../../../../arm-none-eabi/lib/libc.a(lib_a-lseekr.o)
 .data          0x0002901c        0x0 /opt/CodeSourcery/Sourcery_CodeBench_Lite_for_ARM_EABI/bin/../lib/gcc/arm-none-eabi/4.7.3/../../../../arm-none-eabi/lib/libc.a(lib_a-readr.o)
                0x0002901c                . = ALIGN (0x4)
 *(.data.*)
                0x0002901c                . = ALIGN (0x4)
 *(.ramtext)
                0x0002901c                . = ALIGN (0x4)
                0x0002901c                _edata = .

.igot.plt       0x0002901c        0x0
 .igot.plt      0x00000000        0x0 Rte.o

.bss            0x00029020   0xcc0c50
                0x00029020                _bss_start = .
 *(.bss)
 .bss           0x00029020        0x1 Rte.o
                0x00029020                ComWrite
 .bss           0x00029021        0x0 Rte_Main.o
 .bss           0x00029021        0x0 Rte_Calprms.o
 .bss           0x00029021        0x1 Rte_Internal.o
                0x00029021                RteInitialized
 .bss           0x00029022        0x0 Rte_Callbacks.o
 .bss           0x00029022        0x0 Rte_AdcSWC.o
 .bss           0x00029022        0x0 Rte_FrontWheelSWC.o
 .bss           0x00029022        0x0 Rte_IoHwAb.o
 .bss           0x00029022        0x0 Rte_LedSWC.o
 .bss           0x00029022        0x0 Rte_MotorSWC.o
 .bss           0x00029022        0x0 Rte_PirteSWC.o
 .bss           0x00029022        0x0 Rte_RearWheelSWC.o
 .bss           0x00029022        0x0 Rte_ServoSWC.o
 *fill*         0x00029022        0x2 
 .bss           0x00029024    0x1e7a0 /home/avenir/Documents/dev/eclipse_ws/moped/src/core/boards/Raspberry_Pi/config/simple_stdio.o
 .bss           0x000477c4        0x1 Actuator_Led.o
                0x000477c4                led_init
 *fill*         0x000477c5        0x3 
 .bss           0x000477c8        0x4 Actuator_MotorSpeed.o
                0x000477c8                speed_select_option
 .bss           0x000477cc        0x4 Actuator_ServoDirection.o
                0x000477cc                steer_select_option
 .bss           0x000477d0        0x0 IoHwAb.o
 .bss           0x000477d0        0x4 java.o
                0x000477d0                select
 .bss           0x000477d4        0x0 main.o
 .bss           0x000477d4        0x4 Sensor_Adc.o
                0x000477d4                AdcSensorData
 .bss           0x000477d8        0x4 Sensor_FrontWheel.o
                0x000477d8                frontWheel_Speed
 .bss           0x000477dc        0x4 Sensor_RearWheel.o
                0x000477dc                rearWheel_speed
 .bss           0x000477e0       0x14 system_hooks.o
 .bss           0x000477f4       0x84 vcu_platform.o
                0x000477f4                pirte_write_servo
                0x000477f5                pirte_write_speed
                0x000477f6                acknowledgementTCU_Flag
                0x000477f7                pluginCommunicationTCU_Flag
                0x000477f8                acknowledgementVCU_ComWrite
                0x000477f9                singleframe_Flag
                0x000477fa                firstframe_Flag
                0x000477fb                packageFirstFrame_Flag
                0x000477fc                pluginCommunicationVCUtoSCU_Flag
                0x000477fd                sequnceNumberWrite
                0x000477ff                plugin_new_packageFromTCU
                0x00047801                init_WriteToTCU
                0x00047803                plugin_new_packagefromSCU
                0x00047834                init_WriteToSCU
                0x00047838                Select_Speed
                0x0004783c                Select_Servo
                0x00047874                Pin
                0x00047875                Level
 .bss           0x00047878        0x0 crt0.o
 .bss           0x00047878        0x0 led.o
 .bss           0x00047878        0x4 bcm2835.o
 .bss           0x0004787c       0x1c Uart.o
                0x0004787c                UART_FLAG
                0x0004787d                SPEEDEVENT
                0x0004787e                SERVOEVENT
                0x00047880                result_value
                0x00047884                s
                0x00047888                isLegalReceive
                0x0004788c                index
                0x00047890                channel_index
                0x00047894                value_index
 .bss           0x00047898        0x8 SpeedSensor.o
 .bss           0x000478a0        0x0 Mcp3008.o
 .bss           0x000478a0        0x1 UltrasonicSensor.o
 *fill*         0x000478a1        0x3 
 .bss           0x000478a4       0x50 Os_Cfg.o
                0x000478a4                os_dbg_mask
                0x000478a8                Os_Arc_OsTickCounter
                0x000478ac                Os_VectorToIsr
 .bss           0x000478f4        0x0 EcuM.o
 .bss           0x000478f4        0x0 EcuM_Fixed.o
 .bss           0x000478f4       0x14 EcuM_Main.o
 .bss           0x00047908        0x0 EcuM_PBcfg.o
 .bss           0x00047908        0x0 EcuM_PBHeader.o
 .bss           0x00047908        0x1 EcuM_Callout_Stubs.o
 .bss           0x00047909        0x0 Dma.o
 .bss           0x00047909        0x0 Dma_Cfg.o
 .bss           0x00047909        0x0 Mcu.o
 *fill*         0x00047909        0x3 
 .bss           0x0004790c        0x4 Mcu_Cfg.o
                0x0004790c                Mcu_RamSectorSettingConfigData
 .bss           0x00047910       0x4c Can.o
                0x00047910                Can_Global
                0x00047928                CanUnit
 .bss           0x0004795c        0x4 CanIf.o
 .bss           0x00047960        0x0 CanIf_Cfg.o
 .bss           0x00047960        0x0 CanIf_PBCfg.o
 .bss           0x00047960        0x0 Dio.o
 .bss           0x00047960        0x0 Dio_Lcfg.o
 .bss           0x00047960        0x8 Port.o
 .bss           0x00047968        0x0 Port_Cfg.o
 .bss           0x00047968        0x0 arch_krn.o
 .bss           0x00047968        0x0 event.o
 .bss           0x00047968        0xc os_init.o
                0x00047968                beforeStartHooks
                0x0004796c                afterStartHooks
                0x00047970                afterIsrSetup
 .bss           0x00047974        0x0 arch.o
 .bss           0x00047974        0x0 task.o
 .bss           0x00047974        0x0 resource.o
 .bss           0x00047974        0x0 alarm.o
 .bss           0x00047974        0x0 sched_table.o
 .bss           0x00047974        0x0 counter.o
 .bss           0x00047974        0x4 sys_tick.o
                0x00047974                led_count
 .bss           0x00047978        0x4 isr.o
                0x00047978                isrCnt
 .bss           0x0004797c        0x0 os_arctest.o
 .bss           0x0004797c        0x0 application.o
 .bss           0x0004797c        0x4 irq.o
                0x0004797c                irq_mask
 .bss           0x00047980      0x128 Spi.o
 .bss           0x00047aa8        0x0 Spi_Lcfg.o
 .bss           0x00047aa8        0x0 Pwm_Cfg.o
 .bss           0x00047aa8        0x1 Det.o
 .bss           0x00047aa9        0x0 Det_Cfg.o
 .bss           0x00047aa9        0x0 Com_Cfg.o
 .bss           0x00047aa9        0x0 Com_PbCfg.o
 .bss           0x00047aa9        0x0 Com_Com.o
 .bss           0x00047aa9        0x0 Com_Sched.o
 *fill*         0x00047aa9        0x3 
 .bss           0x00047aac      0x5ec Com.o
 .bss           0x00048098        0x0 Com_misc.o
 .bss           0x00048098        0x0 PduR_CanNm.o
 .bss           0x00048098        0x0 PduR_Com.o
 .bss           0x00048098        0x0 PduR_Logic.o
 .bss           0x00048098        0x0 PduR_LinIf.o
 .bss           0x00048098        0x0 PduR_PbCfg.o
 .bss           0x00048098        0x0 PduR_Cfg.o
 .bss           0x00048098        0x0 PduR_CanIf.o
 .bss           0x00048098        0x0 PduR_CanTp.o
 .bss           0x00048098        0x0 PduR_J1939Tp.o
 .bss           0x00048098        0x0 PduR_IpduM.o
 .bss           0x00048098        0x0 PduR_Dcm.o
 .bss           0x00048098        0x0 PduR_SoAd.o
 .bss           0x00048098        0x0 PduR_Routing.o
 .bss           0x00048098        0x1 PduR.o
                0x00048098                PduRState
 *fill*         0x00048099        0x7 
 .bss           0x000480a0       0x10 IoHwAb_Digital.o
 .bss           0x000480b0        0x0 IoHwAb_Analog.o
 .bss           0x000480b0        0x0 IoHwAb_Pwm.o
 .bss           0x000480b0        0x8 ramlog.o
 .bss           0x000480b8        0x0 cirq_buffer.o
 .bss           0x000480b8        0x4 clib_port.o
 .bss           0x000480bc        0x0 clib.o
 .bss           0x000480bc        0x0 printf.o
 .bss           0x000480bc        0x0 xtoa.o
 .bss           0x000480bc        0x4 Can_PBcfg.o
                0x000480bc                Can_FilterMask_CanFilterMask
 .bss           0x000480c0   0x298328 Pwm.o
 .bss           0x002e03e8        0x0 /opt/CodeSourcery/Sourcery_CodeBench_Lite_for_ARM_EABI/bin/../lib/gcc/arm-none-eabi/4.7.3/libgcc.a(_udivsi3.o)
 .bss           0x002e03e8        0x0 /opt/CodeSourcery/Sourcery_CodeBench_Lite_for_ARM_EABI/bin/../lib/gcc/arm-none-eabi/4.7.3/libgcc.a(_divsi3.o)
 .bss           0x002e03e8        0x0 /opt/CodeSourcery/Sourcery_CodeBench_Lite_for_ARM_EABI/bin/../lib/gcc/arm-none-eabi/4.7.3/libgcc.a(_dvmd_tls.o)
 .bss           0x002e03e8        0x0 /opt/CodeSourcery/Sourcery_CodeBench_Lite_for_ARM_EABI/bin/../lib/gcc/arm-none-eabi/4.7.3/libgcc.a(_arm_addsubdf3.o)
 .bss           0x002e03e8        0x0 /opt/CodeSourcery/Sourcery_CodeBench_Lite_for_ARM_EABI/bin/../lib/gcc/arm-none-eabi/4.7.3/libgcc.a(_arm_muldivdf3.o)
 .bss           0x002e03e8        0x0 /opt/CodeSourcery/Sourcery_CodeBench_Lite_for_ARM_EABI/bin/../lib/gcc/arm-none-eabi/4.7.3/libgcc.a(_arm_fixdfsi.o)
 .bss           0x002e03e8        0x0 /opt/CodeSourcery/Sourcery_CodeBench_Lite_for_ARM_EABI/bin/../lib/gcc/arm-none-eabi/4.7.3/libgcc.a(_arm_fixunsdfsi.o)
 .bss           0x002e03e8        0x0 /opt/CodeSourcery/Sourcery_CodeBench_Lite_for_ARM_EABI/bin/../lib/gcc/arm-none-eabi/4.7.3/libgcc.a(_arm_truncdfsf2.o)
 .bss           0x002e03e8        0x0 /opt/CodeSourcery/Sourcery_CodeBench_Lite_for_ARM_EABI/bin/../lib/gcc/arm-none-eabi/4.7.3/libgcc.a(_arm_addsubsf3.o)
 .bss           0x002e03e8        0x0 /opt/CodeSourcery/Sourcery_CodeBench_Lite_for_ARM_EABI/bin/../lib/gcc/arm-none-eabi/4.7.3/libgcc.a(_arm_muldivsf3.o)
 .bss           0x002e03e8        0x0 /opt/CodeSourcery/Sourcery_CodeBench_Lite_for_ARM_EABI/bin/../lib/gcc/arm-none-eabi/4.7.3/libgcc.a(_arm_fixsfsi.o)
 .bss           0x002e03e8        0x0 /opt/CodeSourcery/Sourcery_CodeBench_Lite_for_ARM_EABI/bin/../lib/gcc/arm-none-eabi/4.7.3/libgcc.a(_arm_fixunssfsi.o)
 .bss           0x002e03e8        0x0 /opt/CodeSourcery/Sourcery_CodeBench_Lite_for_ARM_EABI/bin/../lib/gcc/arm-none-eabi/4.7.3/../../../../arm-none-eabi/lib/libc.a(lib_a-abort.o)
 .bss           0x002e03e8        0x0 /opt/CodeSourcery/Sourcery_CodeBench_Lite_for_ARM_EABI/bin/../lib/gcc/arm-none-eabi/4.7.3/../../../../arm-none-eabi/lib/libc.a(lib_a-fileno.o)
 .bss           0x002e03e8        0x0 /opt/CodeSourcery/Sourcery_CodeBench_Lite_for_ARM_EABI/bin/../lib/gcc/arm-none-eabi/4.7.3/../../../../arm-none-eabi/lib/libc.a(lib_a-findfp.o)
 .bss           0x002e03e8        0x0 /opt/CodeSourcery/Sourcery_CodeBench_Lite_for_ARM_EABI/bin/../lib/gcc/arm-none-eabi/4.7.3/../../../../arm-none-eabi/lib/libc.a(lib_a-fopen.o)
 .bss           0x002e03e8        0x0 /opt/CodeSourcery/Sourcery_CodeBench_Lite_for_ARM_EABI/bin/../lib/gcc/arm-none-eabi/4.7.3/../../../../arm-none-eabi/lib/libc.a(lib_a-fseek.o)
 .bss           0x002e03e8        0x0 /opt/CodeSourcery/Sourcery_CodeBench_Lite_for_ARM_EABI/bin/../lib/gcc/arm-none-eabi/4.7.3/../../../../arm-none-eabi/lib/libc.a(lib_a-fstatr.o)
 .bss           0x002e03e8        0x0 /opt/CodeSourcery/Sourcery_CodeBench_Lite_for_ARM_EABI/bin/../lib/gcc/arm-none-eabi/4.7.3/../../../../arm-none-eabi/lib/libc.a(lib_a-fwalk.o)
 .bss           0x002e03e8        0x0 /opt/CodeSourcery/Sourcery_CodeBench_Lite_for_ARM_EABI/bin/../lib/gcc/arm-none-eabi/4.7.3/../../../../arm-none-eabi/lib/libc.a(lib_a-impure.o)
 .bss           0x002e03e8        0x0 /opt/CodeSourcery/Sourcery_CodeBench_Lite_for_ARM_EABI/bin/../lib/gcc/arm-none-eabi/4.7.3/../../../../arm-none-eabi/lib/libc.a(lib_a-makebuf.o)
 .bss           0x002e03e8        0x0 /opt/CodeSourcery/Sourcery_CodeBench_Lite_for_ARM_EABI/bin/../lib/gcc/arm-none-eabi/4.7.3/../../../../arm-none-eabi/lib/libc.a(lib_a-malloc.o)
 .bss           0x002e03e8       0x34 /opt/CodeSourcery/Sourcery_CodeBench_Lite_for_ARM_EABI/bin/../lib/gcc/arm-none-eabi/4.7.3/../../../../arm-none-eabi/lib/libc.a(lib_a-mallocr.o)
                0x002e03e8                __malloc_top_pad
                0x002e03ec                __malloc_current_mallinfo
                0x002e0414                __malloc_max_sbrked_mem
                0x002e0418                __malloc_max_total_mem
 .bss           0x002e041c        0x0 /opt/CodeSourcery/Sourcery_CodeBench_Lite_for_ARM_EABI/bin/../lib/gcc/arm-none-eabi/4.7.3/../../../../arm-none-eabi/lib/libc.a(lib_a-memcmp.o)
 .bss           0x002e041c        0x0 /opt/CodeSourcery/Sourcery_CodeBench_Lite_for_ARM_EABI/bin/../lib/gcc/arm-none-eabi/4.7.3/../../../../arm-none-eabi/lib/libc.a(lib_a-memcpy.o)
 .bss           0x002e041c        0x0 /opt/CodeSourcery/Sourcery_CodeBench_Lite_for_ARM_EABI/bin/../lib/gcc/arm-none-eabi/4.7.3/../../../../arm-none-eabi/lib/libc.a(lib_a-memset.o)
 .bss           0x002e041c        0x0 /opt/CodeSourcery/Sourcery_CodeBench_Lite_for_ARM_EABI/bin/../lib/gcc/arm-none-eabi/4.7.3/../../../../arm-none-eabi/lib/libc.a(lib_a-mlock.o)
 .bss           0x002e041c        0x0 /opt/CodeSourcery/Sourcery_CodeBench_Lite_for_ARM_EABI/bin/../lib/gcc/arm-none-eabi/4.7.3/../../../../arm-none-eabi/lib/libc.a(lib_a-openr.o)
 .bss           0x002e041c        0x0 /opt/CodeSourcery/Sourcery_CodeBench_Lite_for_ARM_EABI/bin/../lib/gcc/arm-none-eabi/4.7.3/../../../../arm-none-eabi/lib/libc.a(lib_a-reent.o)
 .bss           0x002e041c        0x0 /opt/CodeSourcery/Sourcery_CodeBench_Lite_for_ARM_EABI/bin/../lib/gcc/arm-none-eabi/4.7.3/../../../../arm-none-eabi/lib/libc.a(lib_a-refill.o)
 .bss           0x002e041c        0x0 /opt/CodeSourcery/Sourcery_CodeBench_Lite_for_ARM_EABI/bin/../lib/gcc/arm-none-eabi/4.7.3/../../../../arm-none-eabi/lib/libc.a(lib_a-sbrkr.o)
 .bss           0x002e041c        0x0 /opt/CodeSourcery/Sourcery_CodeBench_Lite_for_ARM_EABI/bin/../lib/gcc/arm-none-eabi/4.7.3/../../../../arm-none-eabi/lib/libc.a(lib_a-signal.o)
 .bss           0x002e041c        0x0 /opt/CodeSourcery/Sourcery_CodeBench_Lite_for_ARM_EABI/bin/../lib/gcc/arm-none-eabi/4.7.3/../../../../arm-none-eabi/lib/libc.a(lib_a-signalr.o)
 .bss           0x002e041c        0x0 /opt/CodeSourcery/Sourcery_CodeBench_Lite_for_ARM_EABI/bin/../lib/gcc/arm-none-eabi/4.7.3/../../../../arm-none-eabi/lib/libc.a(lib_a-stdio.o)
 .bss           0x002e041c        0x0 /opt/CodeSourcery/Sourcery_CodeBench_Lite_for_ARM_EABI/bin/../lib/gcc/arm-none-eabi/4.7.3/../../../../arm-none-eabi/lib/libc.a(lib_a-strcmp.o)
 .bss           0x002e041c        0x0 /opt/CodeSourcery/Sourcery_CodeBench_Lite_for_ARM_EABI/bin/../lib/gcc/arm-none-eabi/4.7.3/../../../../arm-none-eabi/lib/libc.a(lib_a-strcpy.o)
 .bss           0x002e041c        0x0 /opt/CodeSourcery/Sourcery_CodeBench_Lite_for_ARM_EABI/bin/../lib/gcc/arm-none-eabi/4.7.3/../../../../arm-none-eabi/lib/libc.a(lib_a-strlen.o)
 .bss           0x002e041c        0x0 /opt/CodeSourcery/Sourcery_CodeBench_Lite_for_ARM_EABI/bin/../lib/gcc/arm-none-eabi/4.7.3/../../../../arm-none-eabi/lib/libc.a(lib_a-strncpy.o)
 .bss           0x002e041c        0x0 /opt/CodeSourcery/Sourcery_CodeBench_Lite_for_ARM_EABI/bin/../lib/gcc/arm-none-eabi/4.7.3/../../../../arm-none-eabi/lib/libc.a(lib_a-strtoul.o)
 .bss           0x002e041c        0x0 /opt/CodeSourcery/Sourcery_CodeBench_Lite_for_ARM_EABI/bin/../lib/gcc/arm-none-eabi/4.7.3/../../../../arm-none-eabi/lib/libc.a(lib_a-sysread.o)
 .bss           0x002e041c        0x0 /opt/CodeSourcery/Sourcery_CodeBench_Lite_for_ARM_EABI/bin/../lib/gcc/arm-none-eabi/4.7.3/../../../../arm-none-eabi/lib/libc.a(lib_a-syswrite.o)
 .bss           0x002e041c        0x0 /opt/CodeSourcery/Sourcery_CodeBench_Lite_for_ARM_EABI/bin/../lib/gcc/arm-none-eabi/4.7.3/../../../../arm-none-eabi/lib/libc.a(lib_a-writer.o)
 .bss           0x002e041c        0x0 /opt/CodeSourcery/Sourcery_CodeBench_Lite_for_ARM_EABI/bin/../lib/gcc/arm-none-eabi/4.7.3/../../../../arm-none-eabi/lib/libc.a(lib_a-closer.o)
 .bss           0x002e041c        0x0 /opt/CodeSourcery/Sourcery_CodeBench_Lite_for_ARM_EABI/bin/../lib/gcc/arm-none-eabi/4.7.3/../../../../arm-none-eabi/lib/libc.a(lib_a-ctype_.o)
 .bss           0x002e041c        0x0 /opt/CodeSourcery/Sourcery_CodeBench_Lite_for_ARM_EABI/bin/../lib/gcc/arm-none-eabi/4.7.3/../../../../arm-none-eabi/lib/libc.a(lib_a-fclose.o)
 .bss           0x002e041c        0x0 /opt/CodeSourcery/Sourcery_CodeBench_Lite_for_ARM_EABI/bin/../lib/gcc/arm-none-eabi/4.7.3/../../../../arm-none-eabi/lib/libc.a(lib_a-fflush.o)
 .bss           0x002e041c        0x0 /opt/CodeSourcery/Sourcery_CodeBench_Lite_for_ARM_EABI/bin/../lib/gcc/arm-none-eabi/4.7.3/../../../../arm-none-eabi/lib/libc.a(lib_a-flags.o)
 .bss           0x002e041c        0x0 /opt/CodeSourcery/Sourcery_CodeBench_Lite_for_ARM_EABI/bin/../lib/gcc/arm-none-eabi/4.7.3/../../../../arm-none-eabi/lib/libc.a(lib_a-freer.o)
 .bss           0x002e041c        0x0 /opt/CodeSourcery/Sourcery_CodeBench_Lite_for_ARM_EABI/bin/../lib/gcc/arm-none-eabi/4.7.3/../../../../arm-none-eabi/lib/libc.a(lib_a-isattyr.o)
 .bss           0x002e041c        0x0 /opt/CodeSourcery/Sourcery_CodeBench_Lite_for_ARM_EABI/bin/../lib/gcc/arm-none-eabi/4.7.3/../../../../arm-none-eabi/lib/libc.a(lib_a-lseekr.o)
 .bss           0x002e041c        0x0 /opt/CodeSourcery/Sourcery_CodeBench_Lite_for_ARM_EABI/bin/../lib/gcc/arm-none-eabi/4.7.3/../../../../arm-none-eabi/lib/libc.a(lib_a-readr.o)
                0x002e041c                . = ALIGN (0x4)
 *(.bss.*)
                0x002e041c                . = ALIGN (0x4)
 *(COMMON)
 COMMON         0x002e041c        0x2 Rte.o
                0x002e041c                New_Data_Flag
                0x002e041d                new_data
 *fill*         0x002e041e        0x2 
 COMMON         0x002e0420       0x98 Rte_Internal.o
                0x002e0420                ModeMachines
                0x002e0424                RPortStatuses
                0x002e0428                ExclusiveAreas
                0x002e042c                Buffers
 COMMON         0x002e04b8        0x4 Rte_AdcSWC.o
                0x002e04b8                ImplDE_AdcSWCProto
 COMMON         0x002e04bc        0x4 Rte_FrontWheelSWC.o
                0x002e04bc                ImplDE_FrontWheelSWCProto
 COMMON         0x002e04c0        0x4 Rte_LedSWC.o
                0x002e04c0                ImplDE_LedSWCProto
 COMMON         0x002e04c4       0x10 Rte_MotorSWC.o
                0x002e04c4                ImplDE_MotorSWCProto
 COMMON         0x002e04d4       0x70 Rte_PirteSWC.o
                0x002e04d4                ImplDE_PirteSWCProto
 COMMON         0x002e0544        0x4 Rte_RearWheelSWC.o
                0x002e0544                ImplDE_RearWheelSWCProto
 COMMON         0x002e0548       0x10 Rte_ServoSWC.o
                0x002e0548                ImplDE_ServoSWCProto
 COMMON         0x002e0558     0x1f58 java.o
                0x002e0558                BufferForCommunication
                0x002e0d28                ack_count
                0x002e0d2c                Ack_Flag
                0x002e0d30                BufferForPluginInstallaiton
                0x002e1500                ack_data
                0x002e1504                BufferForCommunicationSCUtoVCU
                0x002e1cd4                countRead
                0x002e1cd8                writeTotalsize
                0x002e1cdc                ack_array_size
                0x002e1ce0                ack_array
 COMMON         0x002e24b0       0x2c system_hooks.o
                0x002e24b0                LogBadType
                0x002e24c0                ErrorLog
 COMMON         0x002e24dc       0xec vcu_platform.o
                0x002e24dc                vehiclePositionData
                0x002e24f0                vehiclePositionAge
                0x002e24f4                readTotalSize
                0x002e24f8                vehiclePositionY
                0x002e24fa                vehiclePositionX
                0x002e24fc                countWrite
                0x002e2500                vehicleOrientation
                0x002e2501                Servo_Value
                0x002e2502                vehiclePositionQualityFactor
                0x002e2504                PackageInstallation
                0x002e2534                Speed_Value
                0x002e2538                PackageReadFromTCU
                0x002e2568                PackageWriteToTCU
                0x002e2598                PackageReadFromSCU
 COMMON         0x002e25c8        0x8 Uart.o
                0x002e25c8                channel
                0x002e25cc                value
 COMMON         0x002e25d0   0xa02a00 Os_Cfg.o
                0x002e25d0                stack_CanFunctionTask
                0x002e2dd0                stack_RteTask
                0x002e35d0                stack_SensorTask
                0x002e3dd0                stack_StartupTask
                0x002e45d0                stack_SquawkTask
                0x00ce45d0                stack_OsIdle
                0x00ce47d0                stack_ActuatorTask
 COMMON         0x00ce4fd0       0x34 EcuM.o
                0x00ce4fd0                EcuM_World
 COMMON         0x00ce5004       0x53 CanIf.o
                0x00ce5004                CanIf_LPduData
                0x00ce5054                CanIf_Global
 *fill*         0x00ce5057        0x1 
 COMMON         0x00ce5058       0x30 Dio.o
                0x00ce5058                IOPORT1
                0x00ce5070                IOPORT0
 COMMON         0x00ce5088       0x99 os_init.o
                0x00ce5088                os_error
                0x00ce5098                Os_IntSuspendAllCnt
                0x00ce5099                Os_IntDisableAllCnt
                0x00ce509c                Os_Sys
                0x00ce5120                Os_IntSuspendOsCnt
 *fill*         0x00ce5121        0x3 
 COMMON         0x00ce5124      0x39c task.o
                0x00ce5124                Os_TaskVarList
 COMMON         0x00ce54c0      0x8d0 isr.o
                0x00ce54c0                Os_IsrVarList
                0x00ce5590                Os_IsrStack
 COMMON         0x00ce5d90        0x2 application.o
                0x00ce5d90                Os_AppVar
 *fill*         0x00ce5d92        0x2 
 COMMON         0x00ce5d94       0x50 Com_Com.o
                0x00ce5d94                Com_BufferPduState
 COMMON         0x00ce5de4        0x8 Com.o
                0x00ce5de4                Com_SystemEndianness
                0x00ce5de8                ComConfig
 COMMON         0x00ce5dec     0x3e80 clib_port.o
                0x00ce5dec                _heap
 COMMON         0x00ce9c6c        0x4 /opt/CodeSourcery/Sourcery_CodeBench_Lite_for_ARM_EABI/bin/../lib/gcc/arm-none-eabi/4.7.3/../../../../arm-none-eabi/lib/libc.a(lib_a-reent.o)
                0x00ce9c6c                errno
                0x00ce9c70                . = ALIGN (0x4)
                0x00ce9c70                _bss_end = .

.uninit         0x00ce9c70      0x834
 *(.winidea_port .ramlog .dem_eventmemory_pri)
 .ramlog        0x00ce9c70       0x64 Det.o
                0x00ce9c70                Det_RamlogIndex
                0x00ce9c74                Det_RamLog
 .ramlog        0x00ce9cd4      0x7d0 ramlog.o

.stab
 *(.stab)

.stabstr
 *(.stabstr)

.stab.excl
 *(.stab.excl)

.stab.exclstr
 *(.stab.exclstr)

.stab.index
 *(.stab.index)

.stab.indexstr
 *(.stab.indexstr)

.comment        0x00000000       0x30
 *(.comment)
 .comment       0x00000000       0x30 Rte.o
                                 0x31 (size before relaxing)
 .comment       0x00000000       0x31 Rte_Main.o
 .comment       0x00000000       0x31 Rte_Calprms.o
 .comment       0x00000000       0x31 Rte_Internal.o
 .comment       0x00000000       0x31 Rte_Callbacks.o
 .comment       0x00000000       0x31 Rte_AdcSWC.o
 .comment       0x00000000       0x31 Rte_FrontWheelSWC.o
 .comment       0x00000000       0x31 Rte_IoHwAb.o
 .comment       0x00000000       0x31 Rte_LedSWC.o
 .comment       0x00000000       0x31 Rte_MotorSWC.o
 .comment       0x00000000       0x31 Rte_PirteSWC.o
 .comment       0x00000000       0x31 Rte_RearWheelSWC.o
 .comment       0x00000000       0x31 Rte_ServoSWC.o
 .comment       0x00000000       0x31 /home/avenir/Documents/dev/eclipse_ws/moped/src/core/boards/Raspberry_Pi/config/simple_stdio.o
 .comment       0x00000000       0x31 Actuator_Led.o
 .comment       0x00000000       0x31 Actuator_MotorSpeed.o
 .comment       0x00000000       0x31 Actuator_ServoDirection.o
 .comment       0x00000000       0x31 IoHwAb.o
 .comment       0x00000000       0x31 java.o
 .comment       0x00000000       0x31 main.o
 .comment       0x00000000       0x31 Sensor_Adc.o
 .comment       0x00000000       0x31 Sensor_FrontWheel.o
 .comment       0x00000000       0x31 Sensor_RearWheel.o
 .comment       0x00000000       0x31 system_hooks.o
 .comment       0x00000000       0x31 vcu_platform.o
 .comment       0x00000000       0x31 led.o
 .comment       0x00000000       0x31 bcm2835.o
 .comment       0x00000000       0x31 Uart.o
 .comment       0x00000000       0x31 SpeedSensor.o
 .comment       0x00000000       0x31 Mcp3008.o
 .comment       0x00000000       0x31 UltrasonicSensor.o
 .comment       0x00000000       0x31 Os_Cfg.o
 .comment       0x00000000       0x31 EcuM.o
 .comment       0x00000000       0x31 EcuM_Fixed.o
 .comment       0x00000000       0x31 EcuM_Main.o
 .comment       0x00000000       0x31 EcuM_PBcfg.o
 .comment       0x00000000       0x31 EcuM_PBHeader.o
 .comment       0x00000000       0x31 EcuM_Callout_Stubs.o
 .comment       0x00000000       0x31 Dma.o
 .comment       0x00000000       0x31 Dma_Cfg.o
 .comment       0x00000000       0x31 Mcu.o
 .comment       0x00000000       0x31 Mcu_Cfg.o
 .comment       0x00000000       0x31 Can.o
 .comment       0x00000000       0x31 CanIf.o
 .comment       0x00000000       0x31 CanIf_Cfg.o
 .comment       0x00000000       0x31 CanIf_PBCfg.o
 .comment       0x00000000       0x31 Dio.o
 .comment       0x00000000       0x31 Dio_Lcfg.o
 .comment       0x00000000       0x31 Port.o
 .comment       0x00000000       0x31 Port_Cfg.o
 .comment       0x00000000       0x31 event.o
 .comment       0x00000000       0x31 os_init.o
 .comment       0x00000000       0x31 arch.o
 .comment       0x00000000       0x31 task.o
 .comment       0x00000000       0x31 resource.o
 .comment       0x00000000       0x31 alarm.o
 .comment       0x00000000       0x31 sched_table.o
 .comment       0x00000000       0x31 counter.o
 .comment       0x00000000       0x31 sys_tick.o
 .comment       0x00000000       0x31 isr.o
 .comment       0x00000000       0x31 os_arctest.o
 .comment       0x00000000       0x31 application.o
 .comment       0x00000000       0x31 irq.o
 .comment       0x00000000       0x31 Spi.o
 .comment       0x00000000       0x31 Spi_Lcfg.o
 .comment       0x00000000       0x31 Pwm_Cfg.o
 .comment       0x00000000       0x31 Det.o
 .comment       0x00000000       0x31 Det_Cfg.o
 .comment       0x00000000       0x31 Com_Cfg.o
 .comment       0x00000000       0x31 Com_PbCfg.o
 .comment       0x00000000       0x31 Com_Com.o
 .comment       0x00000000       0x31 Com_Sched.o
 .comment       0x00000000       0x31 Com.o
 .comment       0x00000000       0x31 Com_misc.o
 .comment       0x00000000       0x31 PduR_CanNm.o
 .comment       0x00000000       0x31 PduR_Com.o
 .comment       0x00000000       0x31 PduR_Logic.o
 .comment       0x00000000       0x31 PduR_LinIf.o
 .comment       0x00000000       0x31 PduR_PbCfg.o
 .comment       0x00000000       0x31 PduR_Cfg.o
 .comment       0x00000000       0x31 PduR_CanIf.o
 .comment       0x00000000       0x31 PduR_CanTp.o
 .comment       0x00000000       0x31 PduR_J1939Tp.o
 .comment       0x00000000       0x31 PduR_IpduM.o
 .comment       0x00000000       0x31 PduR_Dcm.o
 .comment       0x00000000       0x31 PduR_SoAd.o
 .comment       0x00000000       0x31 PduR_Routing.o
 .comment       0x00000000       0x31 PduR.o
 .comment       0x00000000       0x31 IoHwAb_Digital.o
 .comment       0x00000000       0x31 IoHwAb_Analog.o
 .comment       0x00000000       0x31 IoHwAb_Pwm.o
 .comment       0x00000000       0x31 ramlog.o
 .comment       0x00000000       0x31 cirq_buffer.o
 .comment       0x00000000       0x31 clib_port.o
 .comment       0x00000000       0x31 clib.o
 .comment       0x00000000       0x31 printf.o
 .comment       0x00000000       0x31 xtoa.o
 .comment       0x00000000       0x31 Can_PBcfg.o
 .comment       0x00000000       0x31 Pwm.o

.ARM.attributes
                0x00000000       0x35
 .ARM.attributes
                0x00000000       0x37 Rte.o
 .ARM.attributes
                0x00000037       0x37 Rte_Main.o
 .ARM.attributes
                0x0000006e       0x37 Rte_Calprms.o
 .ARM.attributes
                0x000000a5       0x37 Rte_Internal.o
 .ARM.attributes
                0x000000dc       0x37 Rte_Callbacks.o
 .ARM.attributes
                0x00000113       0x37 Rte_AdcSWC.o
 .ARM.attributes
                0x0000014a       0x37 Rte_FrontWheelSWC.o
 .ARM.attributes
                0x00000181       0x37 Rte_IoHwAb.o
 .ARM.attributes
                0x000001b8       0x37 Rte_LedSWC.o
 .ARM.attributes
                0x000001ef       0x37 Rte_MotorSWC.o
 .ARM.attributes
                0x00000226       0x37 Rte_PirteSWC.o
 .ARM.attributes
                0x0000025d       0x37 Rte_RearWheelSWC.o
 .ARM.attributes
                0x00000294       0x37 Rte_ServoSWC.o
 .ARM.attributes
                0x000002cb       0x37 /home/avenir/Documents/dev/eclipse_ws/moped/src/core/boards/Raspberry_Pi/config/simple_stdio.o
 .ARM.attributes
                0x00000302       0x37 Actuator_Led.o
 .ARM.attributes
                0x00000339       0x37 Actuator_MotorSpeed.o
 .ARM.attributes
                0x00000370       0x37 Actuator_ServoDirection.o
 .ARM.attributes
                0x000003a7       0x37 IoHwAb.o
 .ARM.attributes
                0x000003de       0x37 java.o
 .ARM.attributes
                0x00000415       0x37 main.o
 .ARM.attributes
                0x0000044c       0x37 Sensor_Adc.o
 .ARM.attributes
                0x00000483       0x37 Sensor_FrontWheel.o
 .ARM.attributes
                0x000004ba       0x37 Sensor_RearWheel.o
 .ARM.attributes
                0x000004f1       0x37 system_hooks.o
 .ARM.attributes
                0x00000528       0x37 vcu_platform.o
 .ARM.attributes
                0x0000055f       0x25 crt0.o
 .ARM.attributes
                0x00000584       0x37 led.o
 .ARM.attributes
                0x000005bb       0x37 bcm2835.o
 .ARM.attributes
                0x000005f2       0x37 Uart.o
 .ARM.attributes
                0x00000629       0x37 SpeedSensor.o
 .ARM.attributes
                0x00000660       0x37 Mcp3008.o
 .ARM.attributes
                0x00000697       0x37 UltrasonicSensor.o
 .ARM.attributes
                0x000006ce       0x37 Os_Cfg.o
 .ARM.attributes
                0x00000705       0x37 EcuM.o
 .ARM.attributes
                0x0000073c       0x37 EcuM_Fixed.o
 .ARM.attributes
                0x00000773       0x37 EcuM_Main.o
 .ARM.attributes
                0x000007aa       0x37 EcuM_PBcfg.o
 .ARM.attributes
                0x000007e1       0x37 EcuM_PBHeader.o
 .ARM.attributes
                0x00000818       0x37 EcuM_Callout_Stubs.o
 .ARM.attributes
                0x0000084f       0x37 Dma.o
 .ARM.attributes
                0x00000886       0x37 Dma_Cfg.o
 .ARM.attributes
                0x000008bd       0x37 Mcu.o
 .ARM.attributes
                0x000008f4       0x37 Mcu_Cfg.o
 .ARM.attributes
                0x0000092b       0x37 Can.o
 .ARM.attributes
                0x00000962       0x37 CanIf.o
 .ARM.attributes
                0x00000999       0x37 CanIf_Cfg.o
 .ARM.attributes
                0x000009d0       0x37 CanIf_PBCfg.o
 .ARM.attributes
                0x00000a07       0x37 Dio.o
 .ARM.attributes
                0x00000a3e       0x37 Dio_Lcfg.o
 .ARM.attributes
                0x00000a75       0x37 Port.o
 .ARM.attributes
                0x00000aac       0x37 Port_Cfg.o
 .ARM.attributes
                0x00000ae3       0x25 arch_krn.o
 .ARM.attributes
                0x00000b08       0x37 event.o
 .ARM.attributes
                0x00000b3f       0x37 os_init.o
 .ARM.attributes
                0x00000b76       0x37 arch.o
 .ARM.attributes
                0x00000bad       0x37 task.o
 .ARM.attributes
                0x00000be4       0x37 resource.o
 .ARM.attributes
                0x00000c1b       0x37 alarm.o
 .ARM.attributes
                0x00000c52       0x37 sched_table.o
 .ARM.attributes
                0x00000c89       0x37 counter.o
 .ARM.attributes
                0x00000cc0       0x37 sys_tick.o
 .ARM.attributes
                0x00000cf7       0x37 isr.o
 .ARM.attributes
                0x00000d2e       0x37 os_arctest.o
 .ARM.attributes
                0x00000d65       0x37 application.o
 .ARM.attributes
                0x00000d9c       0x37 irq.o
 .ARM.attributes
                0x00000dd3       0x37 Spi.o
 .ARM.attributes
                0x00000e0a       0x37 Spi_Lcfg.o
 .ARM.attributes
                0x00000e41       0x37 Pwm_Cfg.o
 .ARM.attributes
                0x00000e78       0x37 Det.o
 .ARM.attributes
                0x00000eaf       0x37 Det_Cfg.o
 .ARM.attributes
                0x00000ee6       0x37 Com_Cfg.o
 .ARM.attributes
                0x00000f1d       0x37 Com_PbCfg.o
 .ARM.attributes
                0x00000f54       0x37 Com_Com.o
 .ARM.attributes
                0x00000f8b       0x37 Com_Sched.o
 .ARM.attributes
                0x00000fc2       0x37 Com.o
 .ARM.attributes
                0x00000ff9       0x37 Com_misc.o
 .ARM.attributes
                0x00001030       0x37 PduR_CanNm.o
 .ARM.attributes
                0x00001067       0x37 PduR_Com.o
 .ARM.attributes
                0x0000109e       0x37 PduR_Logic.o
 .ARM.attributes
                0x000010d5       0x37 PduR_LinIf.o
 .ARM.attributes
                0x0000110c       0x37 PduR_PbCfg.o
 .ARM.attributes
                0x00001143       0x37 PduR_Cfg.o
 .ARM.attributes
                0x0000117a       0x37 PduR_CanIf.o
 .ARM.attributes
                0x000011b1       0x37 PduR_CanTp.o
 .ARM.attributes
                0x000011e8       0x37 PduR_J1939Tp.o
 .ARM.attributes
                0x0000121f       0x37 PduR_IpduM.o
 .ARM.attributes
                0x00001256       0x37 PduR_Dcm.o
 .ARM.attributes
                0x0000128d       0x37 PduR_SoAd.o
 .ARM.attributes
                0x000012c4       0x37 PduR_Routing.o
 .ARM.attributes
                0x000012fb       0x37 PduR.o
 .ARM.attributes
                0x00001332       0x37 IoHwAb_Digital.o
 .ARM.attributes
                0x00001369       0x37 IoHwAb_Analog.o
 .ARM.attributes
                0x000013a0       0x37 IoHwAb_Pwm.o
 .ARM.attributes
                0x000013d7       0x37 ramlog.o
 .ARM.attributes
                0x0000140e       0x37 cirq_buffer.o
 .ARM.attributes
                0x00001445       0x37 clib_port.o
 .ARM.attributes
                0x0000147c       0x37 clib.o
 .ARM.attributes
                0x000014b3       0x37 printf.o
 .ARM.attributes
                0x000014ea       0x37 xtoa.o
 .ARM.attributes
                0x00001521       0x37 Can_PBcfg.o
 .ARM.attributes
                0x00001558       0x37 Pwm.o
 .ARM.attributes
                0x0000158f       0x18 /opt/CodeSourcery/Sourcery_CodeBench_Lite_for_ARM_EABI/bin/../lib/gcc/arm-none-eabi/4.7.3/libgcc.a(_udivsi3.o)
 .ARM.attributes
                0x000015a7       0x18 /opt/CodeSourcery/Sourcery_CodeBench_Lite_for_ARM_EABI/bin/../lib/gcc/arm-none-eabi/4.7.3/libgcc.a(_divsi3.o)
 .ARM.attributes
                0x000015bf       0x18 /opt/CodeSourcery/Sourcery_CodeBench_Lite_for_ARM_EABI/bin/../lib/gcc/arm-none-eabi/4.7.3/libgcc.a(_dvmd_tls.o)
 .ARM.attributes
                0x000015d7       0x18 /opt/CodeSourcery/Sourcery_CodeBench_Lite_for_ARM_EABI/bin/../lib/gcc/arm-none-eabi/4.7.3/libgcc.a(_arm_addsubdf3.o)
 .ARM.attributes
                0x000015ef       0x18 /opt/CodeSourcery/Sourcery_CodeBench_Lite_for_ARM_EABI/bin/../lib/gcc/arm-none-eabi/4.7.3/libgcc.a(_arm_muldivdf3.o)
 .ARM.attributes
                0x00001607       0x18 /opt/CodeSourcery/Sourcery_CodeBench_Lite_for_ARM_EABI/bin/../lib/gcc/arm-none-eabi/4.7.3/libgcc.a(_arm_fixdfsi.o)
 .ARM.attributes
                0x0000161f       0x18 /opt/CodeSourcery/Sourcery_CodeBench_Lite_for_ARM_EABI/bin/../lib/gcc/arm-none-eabi/4.7.3/libgcc.a(_arm_fixunsdfsi.o)
 .ARM.attributes
                0x00001637       0x18 /opt/CodeSourcery/Sourcery_CodeBench_Lite_for_ARM_EABI/bin/../lib/gcc/arm-none-eabi/4.7.3/libgcc.a(_arm_truncdfsf2.o)
 .ARM.attributes
                0x0000164f       0x18 /opt/CodeSourcery/Sourcery_CodeBench_Lite_for_ARM_EABI/bin/../lib/gcc/arm-none-eabi/4.7.3/libgcc.a(_arm_addsubsf3.o)
 .ARM.attributes
                0x00001667       0x18 /opt/CodeSourcery/Sourcery_CodeBench_Lite_for_ARM_EABI/bin/../lib/gcc/arm-none-eabi/4.7.3/libgcc.a(_arm_muldivsf3.o)
 .ARM.attributes
                0x0000167f       0x18 /opt/CodeSourcery/Sourcery_CodeBench_Lite_for_ARM_EABI/bin/../lib/gcc/arm-none-eabi/4.7.3/libgcc.a(_arm_fixsfsi.o)
 .ARM.attributes
                0x00001697       0x18 /opt/CodeSourcery/Sourcery_CodeBench_Lite_for_ARM_EABI/bin/../lib/gcc/arm-none-eabi/4.7.3/libgcc.a(_arm_fixunssfsi.o)
 .ARM.attributes
                0x000016af       0x30 /opt/CodeSourcery/Sourcery_CodeBench_Lite_for_ARM_EABI/bin/../lib/gcc/arm-none-eabi/4.7.3/../../../../arm-none-eabi/lib/libc.a(lib_a-abort.o)
 .ARM.attributes
                0x000016df       0x30 /opt/CodeSourcery/Sourcery_CodeBench_Lite_for_ARM_EABI/bin/../lib/gcc/arm-none-eabi/4.7.3/../../../../arm-none-eabi/lib/libc.a(lib_a-fileno.o)
 .ARM.attributes
                0x0000170f       0x30 /opt/CodeSourcery/Sourcery_CodeBench_Lite_for_ARM_EABI/bin/../lib/gcc/arm-none-eabi/4.7.3/../../../../arm-none-eabi/lib/libc.a(lib_a-findfp.o)
 .ARM.attributes
                0x0000173f       0x30 /opt/CodeSourcery/Sourcery_CodeBench_Lite_for_ARM_EABI/bin/../lib/gcc/arm-none-eabi/4.7.3/../../../../arm-none-eabi/lib/libc.a(lib_a-fopen.o)
 .ARM.attributes
                0x0000176f       0x30 /opt/CodeSourcery/Sourcery_CodeBench_Lite_for_ARM_EABI/bin/../lib/gcc/arm-none-eabi/4.7.3/../../../../arm-none-eabi/lib/libc.a(lib_a-fseek.o)
 .ARM.attributes
                0x0000179f       0x30 /opt/CodeSourcery/Sourcery_CodeBench_Lite_for_ARM_EABI/bin/../lib/gcc/arm-none-eabi/4.7.3/../../../../arm-none-eabi/lib/libc.a(lib_a-fstatr.o)
 .ARM.attributes
                0x000017cf       0x30 /opt/CodeSourcery/Sourcery_CodeBench_Lite_for_ARM_EABI/bin/../lib/gcc/arm-none-eabi/4.7.3/../../../../arm-none-eabi/lib/libc.a(lib_a-fwalk.o)
 .ARM.attributes
                0x000017ff       0x30 /opt/CodeSourcery/Sourcery_CodeBench_Lite_for_ARM_EABI/bin/../lib/gcc/arm-none-eabi/4.7.3/../../../../arm-none-eabi/lib/libc.a(lib_a-impure.o)
 .ARM.attributes
                0x0000182f       0x30 /opt/CodeSourcery/Sourcery_CodeBench_Lite_for_ARM_EABI/bin/../lib/gcc/arm-none-eabi/4.7.3/../../../../arm-none-eabi/lib/libc.a(lib_a-makebuf.o)
 .ARM.attributes
                0x0000185f       0x30 /opt/CodeSourcery/Sourcery_CodeBench_Lite_for_ARM_EABI/bin/../lib/gcc/arm-none-eabi/4.7.3/../../../../arm-none-eabi/lib/libc.a(lib_a-malloc.o)
 .ARM.attributes
                0x0000188f       0x30 /opt/CodeSourcery/Sourcery_CodeBench_Lite_for_ARM_EABI/bin/../lib/gcc/arm-none-eabi/4.7.3/../../../../arm-none-eabi/lib/libc.a(lib_a-mallocr.o)
 .ARM.attributes
                0x000018bf       0x30 /opt/CodeSourcery/Sourcery_CodeBench_Lite_for_ARM_EABI/bin/../lib/gcc/arm-none-eabi/4.7.3/../../../../arm-none-eabi/lib/libc.a(lib_a-memcmp.o)
 .ARM.attributes
                0x000018ef       0x30 /opt/CodeSourcery/Sourcery_CodeBench_Lite_for_ARM_EABI/bin/../lib/gcc/arm-none-eabi/4.7.3/../../../../arm-none-eabi/lib/libc.a(lib_a-memcpy.o)
 .ARM.attributes
                0x0000191f       0x30 /opt/CodeSourcery/Sourcery_CodeBench_Lite_for_ARM_EABI/bin/../lib/gcc/arm-none-eabi/4.7.3/../../../../arm-none-eabi/lib/libc.a(lib_a-memset.o)
 .ARM.attributes
                0x0000194f       0x30 /opt/CodeSourcery/Sourcery_CodeBench_Lite_for_ARM_EABI/bin/../lib/gcc/arm-none-eabi/4.7.3/../../../../arm-none-eabi/lib/libc.a(lib_a-mlock.o)
 .ARM.attributes
                0x0000197f       0x30 /opt/CodeSourcery/Sourcery_CodeBench_Lite_for_ARM_EABI/bin/../lib/gcc/arm-none-eabi/4.7.3/../../../../arm-none-eabi/lib/libc.a(lib_a-openr.o)
 .ARM.attributes
                0x000019af       0x30 /opt/CodeSourcery/Sourcery_CodeBench_Lite_for_ARM_EABI/bin/../lib/gcc/arm-none-eabi/4.7.3/../../../../arm-none-eabi/lib/libc.a(lib_a-reent.o)
 .ARM.attributes
                0x000019df       0x30 /opt/CodeSourcery/Sourcery_CodeBench_Lite_for_ARM_EABI/bin/../lib/gcc/arm-none-eabi/4.7.3/../../../../arm-none-eabi/lib/libc.a(lib_a-refill.o)
 .ARM.attributes
                0x00001a0f       0x30 /opt/CodeSourcery/Sourcery_CodeBench_Lite_for_ARM_EABI/bin/../lib/gcc/arm-none-eabi/4.7.3/../../../../arm-none-eabi/lib/libc.a(lib_a-sbrkr.o)
 .ARM.attributes
                0x00001a3f       0x30 /opt/CodeSourcery/Sourcery_CodeBench_Lite_for_ARM_EABI/bin/../lib/gcc/arm-none-eabi/4.7.3/../../../../arm-none-eabi/lib/libc.a(lib_a-signal.o)
 .ARM.attributes
                0x00001a6f       0x30 /opt/CodeSourcery/Sourcery_CodeBench_Lite_for_ARM_EABI/bin/../lib/gcc/arm-none-eabi/4.7.3/../../../../arm-none-eabi/lib/libc.a(lib_a-signalr.o)
 .ARM.attributes
                0x00001a9f       0x30 /opt/CodeSourcery/Sourcery_CodeBench_Lite_for_ARM_EABI/bin/../lib/gcc/arm-none-eabi/4.7.3/../../../../arm-none-eabi/lib/libc.a(lib_a-stdio.o)
 .ARM.attributes
                0x00001acf       0x30 /opt/CodeSourcery/Sourcery_CodeBench_Lite_for_ARM_EABI/bin/../lib/gcc/arm-none-eabi/4.7.3/../../../../arm-none-eabi/lib/libc.a(lib_a-strcmp.o)
 .ARM.attributes
                0x00001aff       0x30 /opt/CodeSourcery/Sourcery_CodeBench_Lite_for_ARM_EABI/bin/../lib/gcc/arm-none-eabi/4.7.3/../../../../arm-none-eabi/lib/libc.a(lib_a-strcpy.o)
 .ARM.attributes
                0x00001b2f       0x30 /opt/CodeSourcery/Sourcery_CodeBench_Lite_for_ARM_EABI/bin/../lib/gcc/arm-none-eabi/4.7.3/../../../../arm-none-eabi/lib/libc.a(lib_a-strlen.o)
 .ARM.attributes
                0x00001b5f       0x30 /opt/CodeSourcery/Sourcery_CodeBench_Lite_for_ARM_EABI/bin/../lib/gcc/arm-none-eabi/4.7.3/../../../../arm-none-eabi/lib/libc.a(lib_a-strncpy.o)
 .ARM.attributes
                0x00001b8f       0x30 /opt/CodeSourcery/Sourcery_CodeBench_Lite_for_ARM_EABI/bin/../lib/gcc/arm-none-eabi/4.7.3/../../../../arm-none-eabi/lib/libc.a(lib_a-strtoul.o)
 .ARM.attributes
                0x00001bbf       0x30 /opt/CodeSourcery/Sourcery_CodeBench_Lite_for_ARM_EABI/bin/../lib/gcc/arm-none-eabi/4.7.3/../../../../arm-none-eabi/lib/libc.a(lib_a-sysread.o)
 .ARM.attributes
                0x00001bef       0x30 /opt/CodeSourcery/Sourcery_CodeBench_Lite_for_ARM_EABI/bin/../lib/gcc/arm-none-eabi/4.7.3/../../../../arm-none-eabi/lib/libc.a(lib_a-syswrite.o)
 .ARM.attributes
                0x00001c1f       0x30 /opt/CodeSourcery/Sourcery_CodeBench_Lite_for_ARM_EABI/bin/../lib/gcc/arm-none-eabi/4.7.3/../../../../arm-none-eabi/lib/libc.a(lib_a-writer.o)
 .ARM.attributes
                0x00001c4f       0x30 /opt/CodeSourcery/Sourcery_CodeBench_Lite_for_ARM_EABI/bin/../lib/gcc/arm-none-eabi/4.7.3/../../../../arm-none-eabi/lib/libc.a(lib_a-closer.o)
 .ARM.attributes
                0x00001c7f       0x30 /opt/CodeSourcery/Sourcery_CodeBench_Lite_for_ARM_EABI/bin/../lib/gcc/arm-none-eabi/4.7.3/../../../../arm-none-eabi/lib/libc.a(lib_a-ctype_.o)
 .ARM.attributes
                0x00001caf       0x30 /opt/CodeSourcery/Sourcery_CodeBench_Lite_for_ARM_EABI/bin/../lib/gcc/arm-none-eabi/4.7.3/../../../../arm-none-eabi/lib/libc.a(lib_a-fclose.o)
 .ARM.attributes
                0x00001cdf       0x30 /opt/CodeSourcery/Sourcery_CodeBench_Lite_for_ARM_EABI/bin/../lib/gcc/arm-none-eabi/4.7.3/../../../../arm-none-eabi/lib/libc.a(lib_a-fflush.o)
 .ARM.attributes
                0x00001d0f       0x30 /opt/CodeSourcery/Sourcery_CodeBench_Lite_for_ARM_EABI/bin/../lib/gcc/arm-none-eabi/4.7.3/../../../../arm-none-eabi/lib/libc.a(lib_a-flags.o)
 .ARM.attributes
                0x00001d3f       0x30 /opt/CodeSourcery/Sourcery_CodeBench_Lite_for_ARM_EABI/bin/../lib/gcc/arm-none-eabi/4.7.3/../../../../arm-none-eabi/lib/libc.a(lib_a-freer.o)
 .ARM.attributes
                0x00001d6f       0x30 /opt/CodeSourcery/Sourcery_CodeBench_Lite_for_ARM_EABI/bin/../lib/gcc/arm-none-eabi/4.7.3/../../../../arm-none-eabi/lib/libc.a(lib_a-isattyr.o)
 .ARM.attributes
                0x00001d9f       0x30 /opt/CodeSourcery/Sourcery_CodeBench_Lite_for_ARM_EABI/bin/../lib/gcc/arm-none-eabi/4.7.3/../../../../arm-none-eabi/lib/libc.a(lib_a-lseekr.o)
 .ARM.attributes
                0x00001dcf       0x30 /opt/CodeSourcery/Sourcery_CodeBench_Lite_for_ARM_EABI/bin/../lib/gcc/arm-none-eabi/4.7.3/../../../../arm-none-eabi/lib/libc.a(lib_a-readr.o)

.debug
 *(.debug)

.line
 *(.line)

.debug_srcinfo
 *(.debug_srcinfo)

.debug_sfnames
 *(.debug_sfnames)

.debug_aranges  0x00000000     0x1fc8
 *(.debug_aranges)
 .debug_aranges
                0x00000000       0x30 Rte.o
 .debug_aranges
                0x00000030       0x28 Rte_Main.o
 .debug_aranges
                0x00000058       0x18 Rte_Calprms.o
 .debug_aranges
                0x00000070      0x1e0 Rte_Internal.o
 .debug_aranges
                0x00000250       0x18 Rte_Callbacks.o
 .debug_aranges
                0x00000268       0x28 Rte_AdcSWC.o
 .debug_aranges
                0x00000290       0x28 Rte_FrontWheelSWC.o
 .debug_aranges
                0x000002b8       0x48 Rte_IoHwAb.o
 .debug_aranges
                0x00000300       0x20 Rte_LedSWC.o
 .debug_aranges
                0x00000320       0x20 Rte_MotorSWC.o
 .debug_aranges
                0x00000340       0x88 Rte_PirteSWC.o
 .debug_aranges
                0x000003c8       0x28 Rte_RearWheelSWC.o
 .debug_aranges
                0x000003f0       0x20 Rte_ServoSWC.o
 .debug_aranges
                0x00000410       0x58 /home/avenir/Documents/dev/eclipse_ws/moped/src/core/boards/Raspberry_Pi/config/simple_stdio.o
 .debug_aranges
                0x00000468       0x38 Actuator_Led.o
 .debug_aranges
                0x000004a0       0x30 Actuator_MotorSpeed.o
 .debug_aranges
                0x000004d0       0x30 Actuator_ServoDirection.o
 .debug_aranges
                0x00000500       0x28 IoHwAb.o
 .debug_aranges
                0x00000528      0x118 java.o
 .debug_aranges
                0x00000640       0x38 main.o
 .debug_aranges
                0x00000678       0x38 Sensor_Adc.o
 .debug_aranges
                0x000006b0       0x38 Sensor_FrontWheel.o
 .debug_aranges
                0x000006e8       0x38 Sensor_RearWheel.o
 .debug_aranges
                0x00000720       0x50 system_hooks.o
 .debug_aranges
                0x00000770      0x168 vcu_platform.o
 .debug_aranges
                0x000008d8       0x20 crt0.o
 .debug_aranges
                0x000008f8       0x80 led.o
 .debug_aranges
                0x00000978       0x98 bcm2835.o
 .debug_aranges
                0x00000a10       0x78 Uart.o
 .debug_aranges
                0x00000a88       0x40 SpeedSensor.o
 .debug_aranges
                0x00000ac8       0x20 Mcp3008.o
 .debug_aranges
                0x00000ae8       0x28 UltrasonicSensor.o
 .debug_aranges
                0x00000b10       0x18 Os_Cfg.o
 .debug_aranges
                0x00000b28       0x80 EcuM.o
 .debug_aranges
                0x00000ba8       0x58 EcuM_Fixed.o
 .debug_aranges
                0x00000c00       0x88 EcuM_Main.o
 .debug_aranges
                0x00000c88       0x18 EcuM_PBcfg.o
 .debug_aranges
                0x00000ca0       0x18 EcuM_PBHeader.o
 .debug_aranges
                0x00000cb8       0xe8 EcuM_Callout_Stubs.o
 .debug_aranges
                0x00000da0       0x40 Dma.o
 .debug_aranges
                0x00000de0       0x18 Dma_Cfg.o
 .debug_aranges
                0x00000df8       0x98 Mcu.o
 .debug_aranges
                0x00000e90       0x18 Mcu_Cfg.o
 .debug_aranges
                0x00000ea8       0xd0 Can.o
 .debug_aranges
                0x00000f78       0x78 CanIf.o
 .debug_aranges
                0x00000ff0       0x18 CanIf_Cfg.o
 .debug_aranges
                0x00001008       0x18 CanIf_PBCfg.o
 .debug_aranges
                0x00001020       0x48 Dio.o
 .debug_aranges
                0x00001068       0x20 Dio_Lcfg.o
 .debug_aranges
                0x00001088       0x30 Port.o
 .debug_aranges
                0x000010b8       0x18 Port_Cfg.o
 .debug_aranges
                0x000010d0       0x20 arch_krn.o
 .debug_aranges
                0x000010f0       0x70 event.o
 .debug_aranges
                0x00001160       0x60 os_init.o
 .debug_aranges
                0x000011c0       0x60 arch.o
 .debug_aranges
                0x00001220      0x160 task.o
 .debug_aranges
                0x00001380       0x88 resource.o
 .debug_aranges
                0x00001408       0x98 alarm.o
 .debug_aranges
                0x000014a0       0xb0 sched_table.o
 .debug_aranges
                0x00001550       0x80 counter.o
 .debug_aranges
                0x000015d0       0x50 sys_tick.o
 .debug_aranges
                0x00001620       0xa8 isr.o
 .debug_aranges
                0x000016c8       0x30 os_arctest.o
 .debug_aranges
                0x000016f8       0xb8 application.o
 .debug_aranges
                0x000017b0       0x50 irq.o
 .debug_aranges
                0x00001800       0xd0 Spi.o
 .debug_aranges
                0x000018d0       0x30 Spi_Lcfg.o
 .debug_aranges
                0x00001900       0x18 Pwm_Cfg.o
 .debug_aranges
                0x00001918       0x40 Det.o
 .debug_aranges
                0x00001958       0x18 Det_Cfg.o
 .debug_aranges
                0x00001970       0x18 Com_Cfg.o
 .debug_aranges
                0x00001988       0x18 Com_PbCfg.o
 .debug_aranges
                0x000019a0       0x98 Com_Com.o
 .debug_aranges
                0x00001a38       0x38 Com_Sched.o
 .debug_aranges
                0x00001a70       0x78 Com.o
 .debug_aranges
                0x00001ae8       0xa8 Com_misc.o
 .debug_aranges
                0x00001b90       0x18 PduR_CanNm.o
 .debug_aranges
                0x00001ba8       0x18 PduR_Com.o
 .debug_aranges
                0x00001bc0       0x18 PduR_Logic.o
 .debug_aranges
                0x00001bd8       0x18 PduR_LinIf.o
 .debug_aranges
                0x00001bf0       0x18 PduR_PbCfg.o
 .debug_aranges
                0x00001c08       0x18 PduR_Cfg.o
 .debug_aranges
                0x00001c20       0x18 PduR_CanIf.o
 .debug_aranges
                0x00001c38       0x18 PduR_CanTp.o
 .debug_aranges
                0x00001c50       0x18 PduR_J1939Tp.o
 .debug_aranges
                0x00001c68       0x18 PduR_IpduM.o
 .debug_aranges
                0x00001c80       0x18 PduR_Dcm.o
 .debug_aranges
                0x00001c98       0x18 PduR_SoAd.o
 .debug_aranges
                0x00001cb0       0x18 PduR_Routing.o
 .debug_aranges
                0x00001cc8       0x18 PduR.o
 .debug_aranges
                0x00001ce0       0x50 IoHwAb_Digital.o
 .debug_aranges
                0x00001d30       0x50 ramlog.o
 .debug_aranges
                0x00001d80       0x68 cirq_buffer.o
 .debug_aranges
                0x00001de8       0x78 clib_port.o
 .debug_aranges
                0x00001e60       0x18 clib.o
 .debug_aranges
                0x00001e78       0x98 printf.o
 .debug_aranges
                0x00001f10       0x30 xtoa.o
 .debug_aranges
                0x00001f40       0x18 Can_PBcfg.o
 .debug_aranges
                0x00001f58       0x70 Pwm.o

.debug_pubnames
 *(.debug_pubnames)

.debug_info     0x00000000    0x399dd
 *(.debug_info .gnu.linkonce.wi.*)
 .debug_info    0x00000000      0x367 Rte.o
 .debug_info    0x00000367      0x100 Rte_Main.o
 .debug_info    0x00000467       0x83 Rte_Calprms.o
 .debug_info    0x000004ea     0x1472 Rte_Internal.o
 .debug_info    0x0000195c      0x286 Rte_Callbacks.o
 .debug_info    0x00001be2      0x3b9 Rte_AdcSWC.o
 .debug_info    0x00001f9b      0x3b9 Rte_FrontWheelSWC.o
 .debug_info    0x00002354      0x513 Rte_IoHwAb.o
 .debug_info    0x00002867      0x3a3 Rte_LedSWC.o
 .debug_info    0x00002c0a      0x48e Rte_MotorSWC.o
 .debug_info    0x00003098      0xa79 Rte_PirteSWC.o
 .debug_info    0x00003b11      0x3b9 Rte_RearWheelSWC.o
 .debug_info    0x00003eca      0x48e Rte_ServoSWC.o
 .debug_info    0x00004358      0x567 /home/avenir/Documents/dev/eclipse_ws/moped/src/core/boards/Raspberry_Pi/config/simple_stdio.o
 .debug_info    0x000048bf      0x280 Actuator_Led.o
 .debug_info    0x00004b3f      0x287 Actuator_MotorSpeed.o
 .debug_info    0x00004dc6      0x287 Actuator_ServoDirection.o
 .debug_info    0x0000504d       0xb4 IoHwAb.o
 .debug_info    0x00005101      0xb1f java.o
 .debug_info    0x00005c20      0x3af main.o
 .debug_info    0x00005fcf      0x1e4 Sensor_Adc.o
 .debug_info    0x000061b3      0x3d8 Sensor_FrontWheel.o
 .debug_info    0x0000658b      0x1e4 Sensor_RearWheel.o
 .debug_info    0x0000676f      0x63f system_hooks.o
 .debug_info    0x00006dae     0x121a vcu_platform.o
 .debug_info    0x00007fc8       0xdc crt0.o
 .debug_info    0x000080a4      0x2d8 led.o
 .debug_info    0x0000837c      0x6f5 bcm2835.o
 .debug_info    0x00008a71      0xbe4 Uart.o
 .debug_info    0x00009655      0xa91 SpeedSensor.o
 .debug_info    0x0000a0e6      0x165 Mcp3008.o
 .debug_info    0x0000a24b      0x153 UltrasonicSensor.o
 .debug_info    0x0000a39e     0x158e Os_Cfg.o
 .debug_info    0x0000b92c     0x29a9 EcuM.o
 .debug_info    0x0000e2d5     0x2830 EcuM_Fixed.o
 .debug_info    0x00010b05     0x24a6 EcuM_Main.o
 .debug_info    0x00012fab     0x213a EcuM_PBcfg.o
 .debug_info    0x000150e5     0x10d3 EcuM_PBHeader.o
 .debug_info    0x000161b8     0x256a EcuM_Callout_Stubs.o
 .debug_info    0x00018722      0x365 Dma.o
 .debug_info    0x00018a87      0x19b Dma_Cfg.o
 .debug_info    0x00018c22      0x5f0 Mcu.o
 .debug_info    0x00019212      0x2a9 Mcu_Cfg.o
 .debug_info    0x000194bb     0x1a88 Can.o
 .debug_info    0x0001af43     0x10b6 CanIf.o
 .debug_info    0x0001bff9      0x53e CanIf_Cfg.o
 .debug_info    0x0001c537      0x911 CanIf_PBCfg.o
 .debug_info    0x0001ce48      0x381 Dio.o
 .debug_info    0x0001d1c9      0x1b7 Dio_Lcfg.o
 .debug_info    0x0001d380      0x2fe Port.o
 .debug_info    0x0001d67e      0x13f Port_Cfg.o
 .debug_info    0x0001d7bd       0x94 arch_krn.o
 .debug_info    0x0001d851     0x11b6 event.o
 .debug_info    0x0001ea07     0x165d os_init.o
 .debug_info    0x00020064      0xe03 arch.o
 .debug_info    0x00020e67     0x1882 task.o
 .debug_info    0x000226e9     0x11c8 resource.o
 .debug_info    0x000238b1     0x173e alarm.o
 .debug_info    0x00024fef     0x1843 sched_table.o
 .debug_info    0x00026832     0x17e1 counter.o
 .debug_info    0x00028013      0xcfc sys_tick.o
 .debug_info    0x00028d0f     0x12c8 isr.o
 .debug_info    0x00029fd7      0xd5b os_arctest.o
 .debug_info    0x0002ad32     0x1a5a application.o
 .debug_info    0x0002c78c      0xa32 irq.o
 .debug_info    0x0002d1be     0x1100 Spi.o
 .debug_info    0x0002e2be      0x583 Spi_Lcfg.o
 .debug_info    0x0002e841      0x1ef Pwm_Cfg.o
 .debug_info    0x0002ea30      0x2c0 Det.o
 .debug_info    0x0002ecf0       0x7c Det_Cfg.o
 .debug_info    0x0002ed6c      0x3a2 Com_Cfg.o
 .debug_info    0x0002f10e      0xbad Com_PbCfg.o
 .debug_info    0x0002fcbb     0x130f Com_Com.o
 .debug_info    0x00030fca      0xc7c Com_Sched.o
 .debug_info    0x00031c46     0x1207 Com.o
 .debug_info    0x00032e4d     0x1596 Com_misc.o
 .debug_info    0x000343e3      0x286 PduR_CanNm.o
 .debug_info    0x00034669      0x286 PduR_Com.o
 .debug_info    0x000348ef      0x286 PduR_Logic.o
 .debug_info    0x00034b75      0x286 PduR_LinIf.o
 .debug_info    0x00034dfb      0x55a PduR_PbCfg.o
 .debug_info    0x00035355      0x286 PduR_Cfg.o
 .debug_info    0x000355db      0x286 PduR_CanIf.o
 .debug_info    0x00035861      0x286 PduR_CanTp.o
 .debug_info    0x00035ae7      0x286 PduR_J1939Tp.o
 .debug_info    0x00035d6d      0x286 PduR_IpduM.o
 .debug_info    0x00035ff3      0x286 PduR_Dcm.o
 .debug_info    0x00036279      0x286 PduR_SoAd.o
 .debug_info    0x000364ff      0x286 PduR_Routing.o
 .debug_info    0x00036785      0x2be PduR.o
 .debug_info    0x00036a43      0x3ba IoHwAb_Digital.o
 .debug_info    0x00036dfd      0x3ec ramlog.o
 .debug_info    0x000371e9      0x3cd cirq_buffer.o
 .debug_info    0x000375b6      0x8d5 clib_port.o
 .debug_info    0x00037e8b       0xee clib.o
 .debug_info    0x00037f79      0x7dd printf.o
 .debug_info    0x00038756      0x183 xtoa.o
 .debug_info    0x000388d9      0x924 Can_PBcfg.o
 .debug_info    0x000391fd      0x7e0 Pwm.o

.debug_abbrev   0x00000000     0x8a2d
 *(.debug_abbrev)
 .debug_abbrev  0x00000000       0xd6 Rte.o
 .debug_abbrev  0x000000d6       0x64 Rte_Main.o
 .debug_abbrev  0x0000013a       0x24 Rte_Calprms.o
 .debug_abbrev  0x0000015e      0x206 Rte_Internal.o
 .debug_abbrev  0x00000364       0xa7 Rte_Callbacks.o
 .debug_abbrev  0x0000040b       0xf1 Rte_AdcSWC.o
 .debug_abbrev  0x000004fc       0xf1 Rte_FrontWheelSWC.o
 .debug_abbrev  0x000005ed      0x122 Rte_IoHwAb.o
 .debug_abbrev  0x0000070f       0xf1 Rte_LedSWC.o
 .debug_abbrev  0x00000800      0x103 Rte_MotorSWC.o
 .debug_abbrev  0x00000903      0x133 Rte_PirteSWC.o
 .debug_abbrev  0x00000a36       0xf1 Rte_RearWheelSWC.o
 .debug_abbrev  0x00000b27      0x103 Rte_ServoSWC.o
 .debug_abbrev  0x00000c2a      0x1b9 /home/avenir/Documents/dev/eclipse_ws/moped/src/core/boards/Raspberry_Pi/config/simple_stdio.o
 .debug_abbrev  0x00000de3      0x134 Actuator_Led.o
 .debug_abbrev  0x00000f17       0xf0 Actuator_MotorSpeed.o
 .debug_abbrev  0x00001007       0xf0 Actuator_ServoDirection.o
 .debug_abbrev  0x000010f7       0x42 IoHwAb.o
 .debug_abbrev  0x00001139      0x26e java.o
 .debug_abbrev  0x000013a7      0x125 main.o
 .debug_abbrev  0x000014cc       0xe0 Sensor_Adc.o
 .debug_abbrev  0x000015ac      0x132 Sensor_FrontWheel.o
 .debug_abbrev  0x000016de       0xe0 Sensor_RearWheel.o
 .debug_abbrev  0x000017be      0x197 system_hooks.o
 .debug_abbrev  0x00001955      0x287 vcu_platform.o
 .debug_abbrev  0x00001bdc       0x14 crt0.o
 .debug_abbrev  0x00001bf0      0x110 led.o
 .debug_abbrev  0x00001d00      0x1f4 bcm2835.o
 .debug_abbrev  0x00001ef4      0x257 Uart.o
 .debug_abbrev  0x0000214b      0x1ee SpeedSensor.o
 .debug_abbrev  0x00002339       0x9d Mcp3008.o
 .debug_abbrev  0x000023d6       0x8b UltrasonicSensor.o
 .debug_abbrev  0x00002461      0x1a4 Os_Cfg.o
 .debug_abbrev  0x00002605      0x2ab EcuM.o
 .debug_abbrev  0x000028b0      0x234 EcuM_Fixed.o
 .debug_abbrev  0x00002ae4      0x2ae EcuM_Main.o
 .debug_abbrev  0x00002d92      0x187 EcuM_PBcfg.o
 .debug_abbrev  0x00002f19      0x109 EcuM_PBHeader.o
 .debug_abbrev  0x00003022      0x2cd EcuM_Callout_Stubs.o
 .debug_abbrev  0x000032ef      0x149 Dma.o
 .debug_abbrev  0x00003438       0x9f Dma_Cfg.o
 .debug_abbrev  0x000034d7      0x1d9 Mcu.o
 .debug_abbrev  0x000036b0       0xa1 Mcu_Cfg.o
 .debug_abbrev  0x00003751      0x2a4 Can.o
 .debug_abbrev  0x000039f5      0x24a CanIf.o
 .debug_abbrev  0x00003c3f      0x151 CanIf_Cfg.o
 .debug_abbrev  0x00003d90      0x106 CanIf_PBCfg.o
 .debug_abbrev  0x00003e96      0x116 Dio.o
 .debug_abbrev  0x00003fac       0xaf Dio_Lcfg.o
 .debug_abbrev  0x0000405b      0x113 Port.o
 .debug_abbrev  0x0000416e       0x77 Port_Cfg.o
 .debug_abbrev  0x000041e5       0x14 arch_krn.o
 .debug_abbrev  0x000041f9      0x29c event.o
 .debug_abbrev  0x00004495      0x2a6 os_init.o
 .debug_abbrev  0x0000473b      0x24a arch.o
 .debug_abbrev  0x00004985      0x3bb task.o
 .debug_abbrev  0x00004d40      0x2d9 resource.o
 .debug_abbrev  0x00005019      0x2d8 alarm.o
 .debug_abbrev  0x000052f1      0x2da sched_table.o
 .debug_abbrev  0x000055cb      0x2b2 counter.o
 .debug_abbrev  0x0000587d      0x26c sys_tick.o
 .debug_abbrev  0x00005ae9      0x34c isr.o
 .debug_abbrev  0x00005e35      0x1e8 os_arctest.o
 .debug_abbrev  0x0000601d      0x2eb application.o
 .debug_abbrev  0x00006308      0x1f6 irq.o
 .debug_abbrev  0x000064fe      0x280 Spi.o
 .debug_abbrev  0x0000677e      0x101 Spi_Lcfg.o
 .debug_abbrev  0x0000687f       0x8f Pwm_Cfg.o
 .debug_abbrev  0x0000690e      0x142 Det.o
 .debug_abbrev  0x00006a50       0x24 Det_Cfg.o
 .debug_abbrev  0x00006a74       0xe2 Com_Cfg.o
 .debug_abbrev  0x00006b56      0x115 Com_PbCfg.o
 .debug_abbrev  0x00006c6b      0x221 Com_Com.o
 .debug_abbrev  0x00006e8c      0x1a1 Com_Sched.o
 .debug_abbrev  0x0000702d      0x238 Com.o
 .debug_abbrev  0x00007265      0x284 Com_misc.o
 .debug_abbrev  0x000074e9       0xa7 PduR_CanNm.o
 .debug_abbrev  0x00007590       0xa7 PduR_Com.o
 .debug_abbrev  0x00007637       0xa7 PduR_Logic.o
 .debug_abbrev  0x000076de       0xa7 PduR_LinIf.o
 .debug_abbrev  0x00007785       0xf0 PduR_PbCfg.o
 .debug_abbrev  0x00007875       0xa7 PduR_Cfg.o
 .debug_abbrev  0x0000791c       0xa7 PduR_CanIf.o
 .debug_abbrev  0x000079c3       0xa7 PduR_CanTp.o
 .debug_abbrev  0x00007a6a       0xa7 PduR_J1939Tp.o
 .debug_abbrev  0x00007b11       0xa7 PduR_IpduM.o
 .debug_abbrev  0x00007bb8       0xa7 PduR_Dcm.o
 .debug_abbrev  0x00007c5f       0xa7 PduR_SoAd.o
 .debug_abbrev  0x00007d06       0xa7 PduR_Routing.o
 .debug_abbrev  0x00007dad       0xb4 PduR.o
 .debug_abbrev  0x00007e61       0xdb IoHwAb_Digital.o
 .debug_abbrev  0x00007f3c      0x1c2 ramlog.o
 .debug_abbrev  0x000080fe      0x125 cirq_buffer.o
 .debug_abbrev  0x00008223      0x246 clib_port.o
 .debug_abbrev  0x00008469       0x8a clib.o
 .debug_abbrev  0x000084f3      0x1a8 printf.o
 .debug_abbrev  0x0000869b       0xa3 xtoa.o
 .debug_abbrev  0x0000873e      0x156 Can_PBcfg.o
 .debug_abbrev  0x00008894      0x199 Pwm.o

.debug_line     0x00000000    0x11e1e
 *(.debug_line)
 .debug_line    0x00000000      0x257 Rte.o
 .debug_line    0x00000257      0x1a5 Rte_Main.o
 .debug_line    0x000003fc       0x1d Rte_Calprms.o
 .debug_line    0x00000419      0x75a Rte_Internal.o
 .debug_line    0x00000b73      0x15c Rte_Callbacks.o
 .debug_line    0x00000ccf      0x27a Rte_AdcSWC.o
 .debug_line    0x00000f49      0x288 Rte_FrontWheelSWC.o
 .debug_line    0x000011d1      0x2bd Rte_IoHwAb.o
 .debug_line    0x0000148e      0x268 Rte_LedSWC.o
 .debug_line    0x000016f6      0x26d Rte_MotorSWC.o
 .debug_line    0x00001963      0x366 Rte_PirteSWC.o
 .debug_line    0x00001cc9      0x286 Rte_RearWheelSWC.o
 .debug_line    0x00001f4f      0x26d Rte_ServoSWC.o
 .debug_line    0x000021bc      0x340 /home/avenir/Documents/dev/eclipse_ws/moped/src/core/boards/Raspberry_Pi/config/simple_stdio.o
 .debug_line    0x000024fc      0x294 Actuator_Led.o
 .debug_line    0x00002790      0x282 Actuator_MotorSpeed.o
 .debug_line    0x00002a12      0x286 Actuator_ServoDirection.o
 .debug_line    0x00002c98       0x96 IoHwAb.o
 .debug_line    0x00002d2e      0x48e java.o
 .debug_line    0x000031bc      0x25e main.o
 .debug_line    0x0000341a      0x22a Sensor_Adc.o
 .debug_line    0x00003644      0x29e Sensor_FrontWheel.o
 .debug_line    0x000038e2      0x236 Sensor_RearWheel.o
 .debug_line    0x00003b18      0x2aa system_hooks.o
 .debug_line    0x00003dc2      0x716 vcu_platform.o
 .debug_line    0x000044d8       0xc5 crt0.o
 .debug_line    0x0000459d      0x297 led.o
 .debug_line    0x00004834      0x2e5 bcm2835.o
 .debug_line    0x00004b19      0x312 Uart.o
 .debug_line    0x00004e2b      0x304 SpeedSensor.o
 .debug_line    0x0000512f      0x1ce Mcp3008.o
 .debug_line    0x000052fd      0x1ff UltrasonicSensor.o
 .debug_line    0x000054fc      0x2df Os_Cfg.o
 .debug_line    0x000057db      0x4e3 EcuM.o
 .debug_line    0x00005cbe      0x45e EcuM_Fixed.o
 .debug_line    0x0000611c      0x531 EcuM_Main.o
 .debug_line    0x0000664d      0x389 EcuM_PBcfg.o
 .debug_line    0x000069d6      0x248 EcuM_PBHeader.o
 .debug_line    0x00006c1e      0x598 EcuM_Callout_Stubs.o
 .debug_line    0x000071b6      0x1fd Dma.o
 .debug_line    0x000073b3      0x193 Dma_Cfg.o
 .debug_line    0x00007546      0x344 Mcu.o
 .debug_line    0x0000788a      0x1f1 Mcu_Cfg.o
 .debug_line    0x00007a7b      0x631 Can.o
 .debug_line    0x000080ac      0x586 CanIf.o
 .debug_line    0x00008632      0x213 CanIf_Cfg.o
 .debug_line    0x00008845      0x237 CanIf_PBCfg.o
 .debug_line    0x00008a7c      0x1f4 Dio.o
 .debug_line    0x00008c70      0x1a5 Dio_Lcfg.o
 .debug_line    0x00008e15      0x1e6 Port.o
 .debug_line    0x00008ffb      0x13b Port_Cfg.o
 .debug_line    0x00009136       0x72 arch_krn.o
 .debug_line    0x000091a8      0x4d1 event.o
 .debug_line    0x00009679      0x40e os_init.o
 .debug_line    0x00009a87      0x2ed arch.o
 .debug_line    0x00009d74      0x8c2 task.o
 .debug_line    0x0000a636      0x45b resource.o
 .debug_line    0x0000aa91      0x597 alarm.o
 .debug_line    0x0000b028      0x676 sched_table.o
 .debug_line    0x0000b69e      0x475 counter.o
 .debug_line    0x0000bb13      0x30d sys_tick.o
 .debug_line    0x0000be20      0x524 isr.o
 .debug_line    0x0000c344      0x261 os_arctest.o
 .debug_line    0x0000c5a5      0x61f application.o
 .debug_line    0x0000cbc4      0x2b4 irq.o
 .debug_line    0x0000ce78      0x598 Spi.o
 .debug_line    0x0000d410      0x225 Spi_Lcfg.o
 .debug_line    0x0000d635      0x169 Pwm_Cfg.o
 .debug_line    0x0000d79e      0x24e Det.o
 .debug_line    0x0000d9ec       0x1d Det_Cfg.o
 .debug_line    0x0000da09      0x1ef Com_Cfg.o
 .debug_line    0x0000dbf8      0x1dd Com_PbCfg.o
 .debug_line    0x0000ddd5      0x5a7 Com_Com.o
 .debug_line    0x0000e37c      0x3b9 Com_Sched.o
 .debug_line    0x0000e735      0x4df Com.o
 .debug_line    0x0000ec14      0x6ae Com_misc.o
 .debug_line    0x0000f2c2      0x15c PduR_CanNm.o
 .debug_line    0x0000f41e      0x15c PduR_Com.o
 .debug_line    0x0000f57a      0x15c PduR_Logic.o
 .debug_line    0x0000f6d6      0x15c PduR_LinIf.o
 .debug_line    0x0000f832      0x1df PduR_PbCfg.o
 .debug_line    0x0000fa11      0x15c PduR_Cfg.o
 .debug_line    0x0000fb6d      0x15c PduR_CanIf.o
 .debug_line    0x0000fcc9      0x15c PduR_CanTp.o
 .debug_line    0x0000fe25      0x15c PduR_J1939Tp.o
 .debug_line    0x0000ff81      0x15c PduR_IpduM.o
 .debug_line    0x000100dd      0x15c PduR_Dcm.o
 .debug_line    0x00010239      0x15c PduR_SoAd.o
 .debug_line    0x00010395      0x15c PduR_Routing.o
 .debug_line    0x000104f1      0x1be PduR.o
 .debug_line    0x000106af      0x344 IoHwAb_Digital.o
 .debug_line    0x000109f3        0x0 IoHwAb_Analog.o
 .debug_line    0x000109f3        0x0 IoHwAb_Pwm.o
 .debug_line    0x000109f3      0x2ba ramlog.o
 .debug_line    0x00010cad      0x347 cirq_buffer.o
 .debug_line    0x00010ff4      0x3d7 clib_port.o
 .debug_line    0x000113cb       0x6b clib.o
 .debug_line    0x00011436      0x34f printf.o
 .debug_line    0x00011785       0xbf xtoa.o
 .debug_line    0x00011844      0x21c Can_PBcfg.o
 .debug_line    0x00011a60      0x3be Pwm.o

.debug_frame    0x00000000     0x5900
 *(.debug_frame)
 .debug_frame   0x00000000       0x64 Rte.o
 .debug_frame   0x00000064       0x40 Rte_Main.o
 .debug_frame   0x000000a4      0x63c Rte_Internal.o
 .debug_frame   0x000006e0       0x48 Rte_AdcSWC.o
 .debug_frame   0x00000728       0x48 Rte_FrontWheelSWC.o
 .debug_frame   0x00000770       0xb8 Rte_IoHwAb.o
 .debug_frame   0x00000828       0x2c Rte_LedSWC.o
 .debug_frame   0x00000854       0x2c Rte_MotorSWC.o
 .debug_frame   0x00000880      0x194 Rte_PirteSWC.o
 .debug_frame   0x00000a14       0x48 Rte_RearWheelSWC.o
 .debug_frame   0x00000a5c       0x2c Rte_ServoSWC.o
 .debug_frame   0x00000a88       0xe0 /home/avenir/Documents/dev/eclipse_ws/moped/src/core/boards/Raspberry_Pi/config/simple_stdio.o
 .debug_frame   0x00000b68       0x7c Actuator_Led.o
 .debug_frame   0x00000be4       0x5c Actuator_MotorSpeed.o
 .debug_frame   0x00000c40       0x5c Actuator_ServoDirection.o
 .debug_frame   0x00000c9c       0x40 IoHwAb.o
 .debug_frame   0x00000cdc      0x348 java.o
 .debug_frame   0x00001024       0x7c main.o
 .debug_frame   0x000010a0       0x7c Sensor_Adc.o
 .debug_frame   0x0000111c       0x7c Sensor_FrontWheel.o
 .debug_frame   0x00001198       0x7c Sensor_RearWheel.o
 .debug_frame   0x00001214       0xcc system_hooks.o
 .debug_frame   0x000012e0      0x474 vcu_platform.o
 .debug_frame   0x00001754      0x15c led.o
 .debug_frame   0x000018b0      0x1b8 bcm2835.o
 .debug_frame   0x00001a68      0x14c Uart.o
 .debug_frame   0x00001bb4       0x9c SpeedSensor.o
 .debug_frame   0x00001c50       0x2c Mcp3008.o
 .debug_frame   0x00001c7c       0x4c UltrasonicSensor.o
 .debug_frame   0x00001cc8      0x160 EcuM.o
 .debug_frame   0x00001e28       0xd8 EcuM_Fixed.o
 .debug_frame   0x00001f00      0x188 EcuM_Main.o
 .debug_frame   0x00002088      0x2b4 EcuM_Callout_Stubs.o
 .debug_frame   0x0000233c       0x8c Dma.o
 .debug_frame   0x000023c8      0x19c Mcu.o
 .debug_frame   0x00002564      0x294 Can.o
 .debug_frame   0x000027f8      0x158 CanIf.o
 .debug_frame   0x00002950       0xb0 Dio.o
 .debug_frame   0x00002a00       0x28 Dio_Lcfg.o
 .debug_frame   0x00002a28       0x60 Port.o
 .debug_frame   0x00002a88      0x130 event.o
 .debug_frame   0x00002bb8      0x100 os_init.o
 .debug_frame   0x00002cb8       0xf4 arch.o
 .debug_frame   0x00002dac      0x458 task.o
 .debug_frame   0x00003204      0x188 resource.o
 .debug_frame   0x0000338c      0x1c0 alarm.o
 .debug_frame   0x0000354c      0x208 sched_table.o
 .debug_frame   0x00003754      0x16c counter.o
 .debug_frame   0x000038c0       0xc4 sys_tick.o
 .debug_frame   0x00003984      0x1e8 isr.o
 .debug_frame   0x00003b6c       0x5c os_arctest.o
 .debug_frame   0x00003bc8      0x210 application.o
 .debug_frame   0x00003dd8       0xbc irq.o
 .debug_frame   0x00003e94      0x27c Spi.o
 .debug_frame   0x00004110       0x58 Spi_Lcfg.o
 .debug_frame   0x00004168       0x94 Det.o
 .debug_frame   0x000041fc      0x1d0 Com_Com.o
 .debug_frame   0x000043cc       0x80 Com_Sched.o
 .debug_frame   0x0000444c      0x158 Com.o
 .debug_frame   0x000045a4      0x1e8 Com_misc.o
 .debug_frame   0x0000478c       0xdc IoHwAb_Digital.o
 .debug_frame   0x00004868       0xd8 ramlog.o
 .debug_frame   0x00004940      0x11c cirq_buffer.o
 .debug_frame   0x00004a5c      0x144 clib_port.o
 .debug_frame   0x00004ba0      0x1f4 printf.o
 .debug_frame   0x00004d94       0x68 xtoa.o
 .debug_frame   0x00004dfc      0x134 Pwm.o
 .debug_frame   0x00004f30       0x20 /opt/CodeSourcery/Sourcery_CodeBench_Lite_for_ARM_EABI/bin/../lib/gcc/arm-none-eabi/4.7.3/libgcc.a(_udivsi3.o)
 .debug_frame   0x00004f50       0x20 /opt/CodeSourcery/Sourcery_CodeBench_Lite_for_ARM_EABI/bin/../lib/gcc/arm-none-eabi/4.7.3/libgcc.a(_divsi3.o)
 .debug_frame   0x00004f70       0x28 /opt/CodeSourcery/Sourcery_CodeBench_Lite_for_ARM_EABI/bin/../lib/gcc/arm-none-eabi/4.7.3/../../../../arm-none-eabi/lib/libc.a(lib_a-abort.o)
 .debug_frame   0x00004f98       0x28 /opt/CodeSourcery/Sourcery_CodeBench_Lite_for_ARM_EABI/bin/../lib/gcc/arm-none-eabi/4.7.3/../../../../arm-none-eabi/lib/libc.a(lib_a-fileno.o)
 .debug_frame   0x00004fc0      0x134 /opt/CodeSourcery/Sourcery_CodeBench_Lite_for_ARM_EABI/bin/../lib/gcc/arm-none-eabi/4.7.3/../../../../arm-none-eabi/lib/libc.a(lib_a-findfp.o)
 .debug_frame   0x000050f4       0x40 /opt/CodeSourcery/Sourcery_CodeBench_Lite_for_ARM_EABI/bin/../lib/gcc/arm-none-eabi/4.7.3/../../../../arm-none-eabi/lib/libc.a(lib_a-fopen.o)
 .debug_frame   0x00005134       0x50 /opt/CodeSourcery/Sourcery_CodeBench_Lite_for_ARM_EABI/bin/../lib/gcc/arm-none-eabi/4.7.3/../../../../arm-none-eabi/lib/libc.a(lib_a-fseek.o)
 .debug_frame   0x00005184       0x2c /opt/CodeSourcery/Sourcery_CodeBench_Lite_for_ARM_EABI/bin/../lib/gcc/arm-none-eabi/4.7.3/../../../../arm-none-eabi/lib/libc.a(lib_a-fstatr.o)
 .debug_frame   0x000051b0       0x54 /opt/CodeSourcery/Sourcery_CodeBench_Lite_for_ARM_EABI/bin/../lib/gcc/arm-none-eabi/4.7.3/../../../../arm-none-eabi/lib/libc.a(lib_a-fwalk.o)
 .debug_frame   0x00005204       0x30 /opt/CodeSourcery/Sourcery_CodeBench_Lite_for_ARM_EABI/bin/../lib/gcc/arm-none-eabi/4.7.3/../../../../arm-none-eabi/lib/libc.a(lib_a-makebuf.o)
 .debug_frame   0x00005234       0x40 /opt/CodeSourcery/Sourcery_CodeBench_Lite_for_ARM_EABI/bin/../lib/gcc/arm-none-eabi/4.7.3/../../../../arm-none-eabi/lib/libc.a(lib_a-malloc.o)
 .debug_frame   0x00005274       0x38 /opt/CodeSourcery/Sourcery_CodeBench_Lite_for_ARM_EABI/bin/../lib/gcc/arm-none-eabi/4.7.3/../../../../arm-none-eabi/lib/libc.a(lib_a-mallocr.o)
 .debug_frame   0x000052ac       0x28 /opt/CodeSourcery/Sourcery_CodeBench_Lite_for_ARM_EABI/bin/../lib/gcc/arm-none-eabi/4.7.3/../../../../arm-none-eabi/lib/libc.a(lib_a-memcmp.o)
 .debug_frame   0x000052d4       0x30 /opt/CodeSourcery/Sourcery_CodeBench_Lite_for_ARM_EABI/bin/../lib/gcc/arm-none-eabi/4.7.3/../../../../arm-none-eabi/lib/libc.a(lib_a-memcpy.o)
 .debug_frame   0x00005304       0x28 /opt/CodeSourcery/Sourcery_CodeBench_Lite_for_ARM_EABI/bin/../lib/gcc/arm-none-eabi/4.7.3/../../../../arm-none-eabi/lib/libc.a(lib_a-memset.o)
 .debug_frame   0x0000532c       0x30 /opt/CodeSourcery/Sourcery_CodeBench_Lite_for_ARM_EABI/bin/../lib/gcc/arm-none-eabi/4.7.3/../../../../arm-none-eabi/lib/libc.a(lib_a-mlock.o)
 .debug_frame   0x0000535c       0x2c /opt/CodeSourcery/Sourcery_CodeBench_Lite_for_ARM_EABI/bin/../lib/gcc/arm-none-eabi/4.7.3/../../../../arm-none-eabi/lib/libc.a(lib_a-openr.o)
 .debug_frame   0x00005388       0x68 /opt/CodeSourcery/Sourcery_CodeBench_Lite_for_ARM_EABI/bin/../lib/gcc/arm-none-eabi/4.7.3/../../../../arm-none-eabi/lib/libc.a(lib_a-reent.o)
 .debug_frame   0x000053f0       0x44 /opt/CodeSourcery/Sourcery_CodeBench_Lite_for_ARM_EABI/bin/../lib/gcc/arm-none-eabi/4.7.3/../../../../arm-none-eabi/lib/libc.a(lib_a-refill.o)
 .debug_frame   0x00005434       0x2c /opt/CodeSourcery/Sourcery_CodeBench_Lite_for_ARM_EABI/bin/../lib/gcc/arm-none-eabi/4.7.3/../../../../arm-none-eabi/lib/libc.a(lib_a-sbrkr.o)
 .debug_frame   0x00005460       0xc0 /opt/CodeSourcery/Sourcery_CodeBench_Lite_for_ARM_EABI/bin/../lib/gcc/arm-none-eabi/4.7.3/../../../../arm-none-eabi/lib/libc.a(lib_a-signal.o)
 .debug_frame   0x00005520       0x44 /opt/CodeSourcery/Sourcery_CodeBench_Lite_for_ARM_EABI/bin/../lib/gcc/arm-none-eabi/4.7.3/../../../../arm-none-eabi/lib/libc.a(lib_a-signalr.o)
 .debug_frame   0x00005564       0x88 /opt/CodeSourcery/Sourcery_CodeBench_Lite_for_ARM_EABI/bin/../lib/gcc/arm-none-eabi/4.7.3/../../../../arm-none-eabi/lib/libc.a(lib_a-stdio.o)
 .debug_frame   0x000055ec       0x30 /opt/CodeSourcery/Sourcery_CodeBench_Lite_for_ARM_EABI/bin/../lib/gcc/arm-none-eabi/4.7.3/../../../../arm-none-eabi/lib/libc.a(lib_a-strcmp.o)
 .debug_frame   0x0000561c       0x20 /opt/CodeSourcery/Sourcery_CodeBench_Lite_for_ARM_EABI/bin/../lib/gcc/arm-none-eabi/4.7.3/../../../../arm-none-eabi/lib/libc.a(lib_a-strcpy.o)
 .debug_frame   0x0000563c       0x20 /opt/CodeSourcery/Sourcery_CodeBench_Lite_for_ARM_EABI/bin/../lib/gcc/arm-none-eabi/4.7.3/../../../../arm-none-eabi/lib/libc.a(lib_a-strlen.o)
 .debug_frame   0x0000565c       0x2c /opt/CodeSourcery/Sourcery_CodeBench_Lite_for_ARM_EABI/bin/../lib/gcc/arm-none-eabi/4.7.3/../../../../arm-none-eabi/lib/libc.a(lib_a-strncpy.o)
 .debug_frame   0x00005688       0x50 /opt/CodeSourcery/Sourcery_CodeBench_Lite_for_ARM_EABI/bin/../lib/gcc/arm-none-eabi/4.7.3/../../../../arm-none-eabi/lib/libc.a(lib_a-strtoul.o)
 .debug_frame   0x000056d8       0x28 /opt/CodeSourcery/Sourcery_CodeBench_Lite_for_ARM_EABI/bin/../lib/gcc/arm-none-eabi/4.7.3/../../../../arm-none-eabi/lib/libc.a(lib_a-sysread.o)
 .debug_frame   0x00005700       0x28 /opt/CodeSourcery/Sourcery_CodeBench_Lite_for_ARM_EABI/bin/../lib/gcc/arm-none-eabi/4.7.3/../../../../arm-none-eabi/lib/libc.a(lib_a-syswrite.o)
 .debug_frame   0x00005728       0x2c /opt/CodeSourcery/Sourcery_CodeBench_Lite_for_ARM_EABI/bin/../lib/gcc/arm-none-eabi/4.7.3/../../../../arm-none-eabi/lib/libc.a(lib_a-writer.o)
 .debug_frame   0x00005754       0x2c /opt/CodeSourcery/Sourcery_CodeBench_Lite_for_ARM_EABI/bin/../lib/gcc/arm-none-eabi/4.7.3/../../../../arm-none-eabi/lib/libc.a(lib_a-closer.o)
 .debug_frame   0x00005780       0x3c /opt/CodeSourcery/Sourcery_CodeBench_Lite_for_ARM_EABI/bin/../lib/gcc/arm-none-eabi/4.7.3/../../../../arm-none-eabi/lib/libc.a(lib_a-fclose.o)
 .debug_frame   0x000057bc       0x48 /opt/CodeSourcery/Sourcery_CodeBench_Lite_for_ARM_EABI/bin/../lib/gcc/arm-none-eabi/4.7.3/../../../../arm-none-eabi/lib/libc.a(lib_a-fflush.o)
 .debug_frame   0x00005804       0x28 /opt/CodeSourcery/Sourcery_CodeBench_Lite_for_ARM_EABI/bin/../lib/gcc/arm-none-eabi/4.7.3/../../../../arm-none-eabi/lib/libc.a(lib_a-flags.o)
 .debug_frame   0x0000582c       0x50 /opt/CodeSourcery/Sourcery_CodeBench_Lite_for_ARM_EABI/bin/../lib/gcc/arm-none-eabi/4.7.3/../../../../arm-none-eabi/lib/libc.a(lib_a-freer.o)
 .debug_frame   0x0000587c       0x2c /opt/CodeSourcery/Sourcery_CodeBench_Lite_for_ARM_EABI/bin/../lib/gcc/arm-none-eabi/4.7.3/../../../../arm-none-eabi/lib/libc.a(lib_a-isattyr.o)
 .debug_frame   0x000058a8       0x2c /opt/CodeSourcery/Sourcery_CodeBench_Lite_for_ARM_EABI/bin/../lib/gcc/arm-none-eabi/4.7.3/../../../../arm-none-eabi/lib/libc.a(lib_a-lseekr.o)
 .debug_frame   0x000058d4       0x2c /opt/CodeSourcery/Sourcery_CodeBench_Lite_for_ARM_EABI/bin/../lib/gcc/arm-none-eabi/4.7.3/../../../../arm-none-eabi/lib/libc.a(lib_a-readr.o)

.debug_str      0x00000000     0xdbd1
 *(.debug_str)
 .debug_str     0x00000000      0x72b Rte.o
                                0x7a3 (size before relaxing)
 .debug_str     0x0000072b       0xb8 Rte_Main.o
                                0x1d1 (size before relaxing)
 .debug_str     0x000007e3       0x7c Rte_Calprms.o
                                0x12d (size before relaxing)
 .debug_str     0x0000085f     0x147b Rte_Internal.o
                               0x1ce0 (size before relaxing)
 .debug_str     0x00001cda       0x7e Rte_Callbacks.o
                                0x709 (size before relaxing)
 .debug_str     0x00001d58      0x128 Rte_AdcSWC.o
                                0x847 (size before relaxing)
 .debug_str     0x00001e80      0x153 Rte_FrontWheelSWC.o
                                0x8a9 (size before relaxing)
 .debug_str     0x00001fd3      0x1b8 Rte_IoHwAb.o
                                0x89d (size before relaxing)
 .debug_str     0x0000218b      0x103 Rte_LedSWC.o
                                0x817 (size before relaxing)
 .debug_str     0x0000228e      0x1ce Rte_MotorSWC.o
                                0x968 (size before relaxing)
 .debug_str     0x0000245c      0x71a Rte_PirteSWC.o
                               0x1752 (size before relaxing)
 .debug_str     0x00002b76      0x149 Rte_RearWheelSWC.o
                                0x89b (size before relaxing)
 .debug_str     0x00002cbf      0x1dd Rte_ServoSWC.o
                                0x968 (size before relaxing)
 .debug_str     0x00002e9c      0x270 /home/avenir/Documents/dev/eclipse_ws/moped/src/core/boards/Raspberry_Pi/config/simple_stdio.o
                                0x347 (size before relaxing)
 .debug_str     0x0000310c       0xfc Actuator_Led.o
                                0x305 (size before relaxing)
 .debug_str     0x00003208      0x17d Actuator_MotorSpeed.o
                                0x430 (size before relaxing)
 .debug_str     0x00003385      0x13f Actuator_ServoDirection.o
                                0x434 (size before relaxing)
 .debug_str     0x000034c4       0x78 IoHwAb.o
                                0x120 (size before relaxing)
 .debug_str     0x0000353c      0x660 java.o
                                0xd9e (size before relaxing)
 .debug_str     0x00003b9c      0x16d main.o
                                0x84b (size before relaxing)
 .debug_str     0x00003d09       0xe4 Sensor_Adc.o
                                0x2db (size before relaxing)
 .debug_str     0x00003ded      0x105 Sensor_FrontWheel.o
                                0x897 (size before relaxing)
 .debug_str     0x00003ef2      0x100 Sensor_RearWheel.o
                                0x31b (size before relaxing)
 .debug_str     0x00003ff2      0x1bc system_hooks.o
                                0x8f6 (size before relaxing)
 .debug_str     0x000041ae      0x98d vcu_platform.o
                               0x1e4f (size before relaxing)
 .debug_str     0x00004b3b       0xf1 led.o
                                0x1d9 (size before relaxing)
 .debug_str     0x00004c2c      0x266 bcm2835.o
                                0x922 (size before relaxing)
 .debug_str     0x00004e92      0x4f3 Uart.o
                                0xc2a (size before relaxing)
 .debug_str     0x00005385      0x254 SpeedSensor.o
                                0xcf3 (size before relaxing)
 .debug_str     0x000055d9       0x79 Mcp3008.o
                                0x1da (size before relaxing)
 .debug_str     0x00005652       0xbd UltrasonicSensor.o
                                0x1a4 (size before relaxing)
 .debug_str     0x0000570f      0x8ba Os_Cfg.o
                               0x158c (size before relaxing)
 .debug_str     0x00005fc9     0x22b3 EcuM.o
                               0x2ed9 (size before relaxing)
 .debug_str     0x0000827c      0x114 EcuM_Fixed.o
                               0x2d83 (size before relaxing)
 .debug_str     0x00008390      0x29e EcuM_Main.o
                               0x2bc4 (size before relaxing)
 .debug_str     0x0000862e       0xcb EcuM_PBcfg.o
                               0x2897 (size before relaxing)
 .debug_str     0x000086f9       0x7b EcuM_PBHeader.o
                               0x1668 (size before relaxing)
 .debug_str     0x00008774      0x2d1 EcuM_Callout_Stubs.o
                               0x2b3e (size before relaxing)
 .debug_str     0x00008a45      0x140 Dma.o
                                0x37a (size before relaxing)
 .debug_str     0x00008b85       0x7e Dma_Cfg.o
                                0x2b1 (size before relaxing)
 .debug_str     0x00008c03      0x255 Mcu.o
                                0x671 (size before relaxing)
 .debug_str     0x00008e58       0xb1 Mcu_Cfg.o
                                0x380 (size before relaxing)
 .debug_str     0x00008f09      0x53d Can.o
                               0x16bf (size before relaxing)
 .debug_str     0x00009446      0x463 CanIf.o
                               0x134c (size before relaxing)
 .debug_str     0x000098a9       0x6f CanIf_Cfg.o
                                0x909 (size before relaxing)
 .debug_str     0x00009918      0x147 CanIf_PBCfg.o
                                0xdce (size before relaxing)
 .debug_str     0x00009a5f      0x142 Dio.o
                                0x2d3 (size before relaxing)
 .debug_str     0x00009ba1       0xd1 Dio_Lcfg.o
                                0x243 (size before relaxing)
 .debug_str     0x00009c72       0xf0 Port.o
                                0x2fb (size before relaxing)
 .debug_str     0x00009d62       0x6e Port_Cfg.o
                                0x210 (size before relaxing)
 .debug_str     0x00009dd0      0x180 event.o
                                0xfd1 (size before relaxing)
 .debug_str     0x00009f50       0xe7 os_init.o
                               0x13e2 (size before relaxing)
 .debug_str     0x0000a037       0xec arch.o
                                0xe78 (size before relaxing)
 .debug_str     0x0000a123      0x2eb task.o
                               0x12dc (size before relaxing)
 .debug_str     0x0000a40e       0xde resource.o
                               0x101c (size before relaxing)
 .debug_str     0x0000a4ec      0x12a alarm.o
                               0x1267 (size before relaxing)
 .debug_str     0x0000a616      0x212 sched_table.o
                               0x13e3 (size before relaxing)
 .debug_str     0x0000a828       0xa9 counter.o
                               0x141d (size before relaxing)
 .debug_str     0x0000a8d1       0xfc sys_tick.o
                                0xe07 (size before relaxing)
 .debug_str     0x0000a9cd      0x163 isr.o
                               0x1106 (size before relaxing)
 .debug_str     0x0000ab30       0x8d os_arctest.o
                                0xe24 (size before relaxing)
 .debug_str     0x0000abbd      0x28d application.o
                               0x1674 (size before relaxing)
 .debug_str     0x0000ae4a       0xce irq.o
                                0xc7c (size before relaxing)
 .debug_str     0x0000af18      0x808 Spi.o
                                0xd60 (size before relaxing)
 .debug_str     0x0000b720       0xf8 Spi_Lcfg.o
                                0x612 (size before relaxing)
 .debug_str     0x0000b818       0x5a Pwm_Cfg.o
                                0x2c1 (size before relaxing)
 .debug_str     0x0000b872      0x124 Det.o
                                0x29e (size before relaxing)
 .debug_str     0x0000b996       0x6d Det_Cfg.o
                                0x115 (size before relaxing)
 .debug_str     0x0000ba03       0xee Com_Cfg.o
                                0x7a1 (size before relaxing)
 .debug_str     0x0000baf1      0x502 Com_PbCfg.o
                               0x119b (size before relaxing)
 .debug_str     0x0000bff3      0x438 Com_Com.o
                               0x121a (size before relaxing)
 .debug_str     0x0000c42b       0xb7 Com_Sched.o
                                0xf72 (size before relaxing)
 .debug_str     0x0000c4e2      0x348 Com.o
                               0x1295 (size before relaxing)
 .debug_str     0x0000c82a      0x500 Com_misc.o
                               0x14cf (size before relaxing)
 .debug_str     0x0000cd2a       0x55 PduR_CanNm.o
                                0x6e0 (size before relaxing)
 .debug_str     0x0000cd7f       0x53 PduR_Com.o
                                0x6de (size before relaxing)
 .debug_str     0x0000cdd2       0x55 PduR_Logic.o
                                0x6e0 (size before relaxing)
 .debug_str     0x0000ce27       0x55 PduR_LinIf.o
                                0x6e0 (size before relaxing)
 .debug_str     0x0000ce7c       0x70 PduR_PbCfg.o
                                0xa1c (size before relaxing)
 .debug_str     0x0000ceec       0x6e PduR_Cfg.o
                                0x6f9 (size before relaxing)
 .debug_str     0x0000cf5a       0x55 PduR_CanIf.o
                                0x6e0 (size before relaxing)
 .debug_str     0x0000cfaf       0x55 PduR_CanTp.o
                                0x6e0 (size before relaxing)
 .debug_str     0x0000d004       0x57 PduR_J1939Tp.o
                                0x6e2 (size before relaxing)
 .debug_str     0x0000d05b       0x55 PduR_IpduM.o
                                0x6e0 (size before relaxing)
 .debug_str     0x0000d0b0       0x53 PduR_Dcm.o
                                0x6de (size before relaxing)
 .debug_str     0x0000d103       0x54 PduR_SoAd.o
                                0x6df (size before relaxing)
 .debug_str     0x0000d157       0x57 PduR_Routing.o
                                0x6e2 (size before relaxing)
 .debug_str     0x0000d1ae       0x8d PduR.o
                                0x718 (size before relaxing)
 .debug_str     0x0000d23b       0xad IoHwAb_Digital.o
                                0x365 (size before relaxing)
 .debug_str     0x0000d2e8      0x128 ramlog.o
                                0x29a (size before relaxing)
 .debug_str     0x0000d410      0x11b cirq_buffer.o
                                0x233 (size before relaxing)
 .debug_str     0x0000d52b       0xd2 clib_port.o
                                0x918 (size before relaxing)
 .debug_str     0x0000d5fd       0x7e clib.o
                                 0xab (size before relaxing)
 .debug_str     0x0000d67b       0xc5 printf.o
                                0x29e (size before relaxing)
 .debug_str     0x0000d740       0x58 xtoa.o
                                0x10a (size before relaxing)
 .debug_str     0x0000d798      0x130 Can_PBcfg.o
                                0xd17 (size before relaxing)
 .debug_str     0x0000d8c8      0x309 Pwm.o
                                0x609 (size before relaxing)

.debug_loc      0x00000000     0x7ba4
 *(.debug_loc)
 .debug_loc     0x00000000       0x84 Rte.o
 .debug_loc     0x00000084       0x58 Rte_Main.o
 .debug_loc     0x000000dc      0x9cc Rte_Internal.o
 .debug_loc     0x00000aa8       0x58 Rte_AdcSWC.o
 .debug_loc     0x00000b00       0x58 Rte_FrontWheelSWC.o
 .debug_loc     0x00000b58      0x108 Rte_IoHwAb.o
 .debug_loc     0x00000c60       0x2c Rte_LedSWC.o
 .debug_loc     0x00000c8c       0x2c Rte_MotorSWC.o
 .debug_loc     0x00000cb8      0x268 Rte_PirteSWC.o
 .debug_loc     0x00000f20       0x58 Rte_RearWheelSWC.o
 .debug_loc     0x00000f78       0x2c Rte_ServoSWC.o
 .debug_loc     0x00000fa4      0x160 /home/avenir/Documents/dev/eclipse_ws/moped/src/core/boards/Raspberry_Pi/config/simple_stdio.o
 .debug_loc     0x00001104       0xb0 Actuator_Led.o
 .debug_loc     0x000011b4       0x84 Actuator_MotorSpeed.o
 .debug_loc     0x00001238       0x84 Actuator_ServoDirection.o
 .debug_loc     0x000012bc       0x58 IoHwAb.o
 .debug_loc     0x00001314      0x580 java.o
 .debug_loc     0x00001894       0xb0 main.o
 .debug_loc     0x00001944       0xb0 Sensor_Adc.o
 .debug_loc     0x000019f4       0xb0 Sensor_FrontWheel.o
 .debug_loc     0x00001aa4       0xb0 Sensor_RearWheel.o
 .debug_loc     0x00001b54      0x134 system_hooks.o
 .debug_loc     0x00001c88      0x738 vcu_platform.o
 .debug_loc     0x000023c0      0x23c led.o
 .debug_loc     0x000025fc      0x2c0 bcm2835.o
 .debug_loc     0x000028bc      0x210 Uart.o
 .debug_loc     0x00002acc       0xdc SpeedSensor.o
 .debug_loc     0x00002ba8       0x2c Mcp3008.o
 .debug_loc     0x00002bd4       0x58 UltrasonicSensor.o
 .debug_loc     0x00002c2c      0x23c EcuM.o
 .debug_loc     0x00002e68      0x160 EcuM_Fixed.o
 .debug_loc     0x00002fc8      0x268 EcuM_Main.o
 .debug_loc     0x00003230      0x478 EcuM_Callout_Stubs.o
 .debug_loc     0x000036a8       0xdc Dma.o
 .debug_loc     0x00003784      0x2c0 Mcu.o
 .debug_loc     0x00003a44      0x3f4 Can.o
 .debug_loc     0x00003e38      0x210 CanIf.o
 .debug_loc     0x00004048      0x108 Dio.o
 .debug_loc     0x00004150       0x2c Dio_Lcfg.o
 .debug_loc     0x0000417c       0x84 Port.o
 .debug_loc     0x00004200      0x1e4 event.o
 .debug_loc     0x000043e4      0x18c os_init.o
 .debug_loc     0x00004570      0x18c arch.o
 .debug_loc     0x000046fc      0x70c task.o
 .debug_loc     0x00004e08      0x268 resource.o
 .debug_loc     0x00005070      0x2c0 alarm.o
 .debug_loc     0x00005330      0x344 sched_table.o
 .debug_loc     0x00005674      0x23c counter.o
 .debug_loc     0x000058b0      0x134 sys_tick.o
 .debug_loc     0x000059e4      0x318 isr.o
 .debug_loc     0x00005cfc       0x84 os_arctest.o
 .debug_loc     0x00005d80      0x370 application.o
 .debug_loc     0x000060f0      0x134 irq.o
 .debug_loc     0x00006224      0x3f4 Spi.o
 .debug_loc     0x00006618       0x84 Spi_Lcfg.o
 .debug_loc     0x0000669c       0xdc Det.o
 .debug_loc     0x00006778      0x2c0 Com_Com.o
 .debug_loc     0x00006a38       0xb0 Com_Sched.o
 .debug_loc     0x00006ae8      0x210 Com.o
 .debug_loc     0x00006cf8      0x318 Com_misc.o
 .debug_loc     0x00007010      0x134 IoHwAb_Digital.o
 .debug_loc     0x00007144      0x140 ramlog.o
 .debug_loc     0x00007284      0x1b8 cirq_buffer.o
 .debug_loc     0x0000743c      0x210 clib_port.o
 .debug_loc     0x0000764c      0x2f0 printf.o
 .debug_loc     0x0000793c       0x84 xtoa.o
 .debug_loc     0x000079c0      0x1e4 Pwm.o

.debug_macinfo
 *(.debug_macinfo)

.debug_weaknames
 *(.debug_weaknames)

.debug_funcnames
 *(.debug_funcnames)

.debug_typenames
 *(.debug_typenames)

.debug_varnames
 *(.debug_varnames)
                0x00007ba4                PROVIDE (end, .)
                0x00007ba4                _end = .
                0x00007ba4                __heap_base__ = _end
                0x1f3fbfc4                __heap_end__ = (__ram_end__ - __stacks_total_size__)
                0x1f3fbfc4                __main_thread_stack_base__ = (__ram_end__ - __stacks_total_size__)
                0x00000000                __EXCEPT_START__ = 0x0
                0x00000000                __EXCEPT_END__ = 0x0
START GROUP
LOAD Rte.o
LOAD Rte_Main.o
LOAD Rte_Calprms.o
LOAD Rte_Internal.o
LOAD Rte_Callbacks.o
LOAD Rte_AdcSWC.o
LOAD Rte_FrontWheelSWC.o
LOAD Rte_IoHwAb.o
LOAD Rte_LedSWC.o
LOAD Rte_MotorSWC.o
LOAD Rte_PirteSWC.o
LOAD Rte_RearWheelSWC.o
LOAD Rte_ServoSWC.o
LOAD /home/avenir/Documents/dev/eclipse_ws/moped/src/core/boards/Raspberry_Pi/config/simple_stdio.o
LOAD Actuator_Led.o
LOAD Actuator_MotorSpeed.o
LOAD Actuator_ServoDirection.o
LOAD IoHwAb.o
LOAD java.o
LOAD main.o
LOAD Sensor_Adc.o
LOAD Sensor_FrontWheel.o
LOAD Sensor_RearWheel.o
LOAD system_hooks.o
LOAD vcu_platform.o
LOAD crt0.o
LOAD led.o
LOAD bcm2835.o
LOAD Uart.o
LOAD SpeedSensor.o
LOAD Mcp3008.o
LOAD UltrasonicSensor.o
LOAD Os_Cfg.o
LOAD EcuM.o
LOAD EcuM_Fixed.o
LOAD EcuM_Main.o
LOAD EcuM_PBcfg.o
LOAD EcuM_PBHeader.o
LOAD EcuM_Callout_Stubs.o
LOAD Dma.o
LOAD Dma_Cfg.o
LOAD Mcu.o
LOAD Mcu_Cfg.o
LOAD Can.o
LOAD CanIf.o
LOAD CanIf_Cfg.o
LOAD CanIf_PBCfg.o
LOAD Dio.o
LOAD Dio_Lcfg.o
LOAD Port.o
LOAD Port_Cfg.o
LOAD arch_krn.o
LOAD event.o
LOAD os_init.o
LOAD arch.o
LOAD task.o
LOAD resource.o
LOAD alarm.o
LOAD sched_table.o
LOAD counter.o
LOAD sys_tick.o
LOAD isr.o
LOAD os_arctest.o
LOAD application.o
LOAD irq.o
LOAD Spi.o
LOAD Spi_Lcfg.o
LOAD Pwm_Cfg.o
LOAD Det.o
LOAD Det_Cfg.o
LOAD Com_Cfg.o
LOAD Com_PbCfg.o
LOAD Com_Com.o
LOAD Com_Sched.o
LOAD Com.o
LOAD Com_misc.o
LOAD PduR_CanNm.o
LOAD PduR_Com.o
LOAD PduR_Logic.o
LOAD PduR_LinIf.o
LOAD PduR_PbCfg.o
LOAD PduR_Cfg.o
LOAD PduR_CanIf.o
LOAD PduR_CanTp.o
LOAD PduR_J1939Tp.o
LOAD PduR_IpduM.o
LOAD PduR_Dcm.o
LOAD PduR_SoAd.o
LOAD PduR_Routing.o
LOAD PduR.o
LOAD IoHwAb_Digital.o
LOAD IoHwAb_Analog.o
LOAD IoHwAb_Pwm.o
LOAD ramlog.o
LOAD cirq_buffer.o
LOAD clib_port.o
LOAD clib.o
LOAD printf.o
LOAD xtoa.o
LOAD Can_PBcfg.o
LOAD Pwm.o
LOAD /opt/CodeSourcery/Sourcery_CodeBench_Lite_for_ARM_EABI/bin/../lib/gcc/arm-none-eabi/4.7.3/libgcc.a
LOAD /opt/CodeSourcery/Sourcery_CodeBench_Lite_for_ARM_EABI/bin/../lib/gcc/arm-none-eabi/4.7.3/../../../../arm-none-eabi/lib/libc.a
END GROUP
OUTPUT(demo_VCU.elf elf32-littlearm)

.debug_ranges   0x00000000     0x18a0
 .debug_ranges  0x00000000       0x20 Rte.o
 .debug_ranges  0x00000020       0x18 Rte_Main.o
 .debug_ranges  0x00000038      0x1d0 Rte_Internal.o
 .debug_ranges  0x00000208       0x18 Rte_AdcSWC.o
 .debug_ranges  0x00000220       0x18 Rte_FrontWheelSWC.o
 .debug_ranges  0x00000238       0x38 Rte_IoHwAb.o
 .debug_ranges  0x00000270       0x10 Rte_LedSWC.o
 .debug_ranges  0x00000280       0x10 Rte_MotorSWC.o
 .debug_ranges  0x00000290       0x78 Rte_PirteSWC.o
 .debug_ranges  0x00000308       0x18 Rte_RearWheelSWC.o
 .debug_ranges  0x00000320       0x10 Rte_ServoSWC.o
 .debug_ranges  0x00000330       0x48 /home/avenir/Documents/dev/eclipse_ws/moped/src/core/boards/Raspberry_Pi/config/simple_stdio.o
 .debug_ranges  0x00000378       0x28 Actuator_Led.o
 .debug_ranges  0x000003a0       0x20 Actuator_MotorSpeed.o
 .debug_ranges  0x000003c0       0x20 Actuator_ServoDirection.o
 .debug_ranges  0x000003e0       0x18 IoHwAb.o
 .debug_ranges  0x000003f8      0x108 java.o
 .debug_ranges  0x00000500       0x28 main.o
 .debug_ranges  0x00000528       0x28 Sensor_Adc.o
 .debug_ranges  0x00000550       0x28 Sensor_FrontWheel.o
 .debug_ranges  0x00000578       0x28 Sensor_RearWheel.o
 .debug_ranges  0x000005a0       0x40 system_hooks.o
 .debug_ranges  0x000005e0      0x158 vcu_platform.o
 .debug_ranges  0x00000738       0x70 led.o
 .debug_ranges  0x000007a8       0x88 bcm2835.o
 .debug_ranges  0x00000830       0x68 Uart.o
 .debug_ranges  0x00000898       0x30 SpeedSensor.o
 .debug_ranges  0x000008c8       0x10 Mcp3008.o
 .debug_ranges  0x000008d8       0x18 UltrasonicSensor.o
 .debug_ranges  0x000008f0       0x70 EcuM.o
 .debug_ranges  0x00000960       0x48 EcuM_Fixed.o
 .debug_ranges  0x000009a8       0x90 EcuM_Main.o
 .debug_ranges  0x00000a38       0xd8 EcuM_Callout_Stubs.o
 .debug_ranges  0x00000b10       0x30 Dma.o
 .debug_ranges  0x00000b40       0x88 Mcu.o
 .debug_ranges  0x00000bc8       0xc0 Can.o
 .debug_ranges  0x00000c88       0x68 CanIf.o
 .debug_ranges  0x00000cf0       0x38 Dio.o
 .debug_ranges  0x00000d28       0x10 Dio_Lcfg.o
 .debug_ranges  0x00000d38       0x20 Port.o
 .debug_ranges  0x00000d58       0x60 event.o
 .debug_ranges  0x00000db8       0x50 os_init.o
 .debug_ranges  0x00000e08       0x50 arch.o
 .debug_ranges  0x00000e58      0x150 task.o
 .debug_ranges  0x00000fa8       0x78 resource.o
 .debug_ranges  0x00001020       0x88 alarm.o
 .debug_ranges  0x000010a8       0xa0 sched_table.o
 .debug_ranges  0x00001148       0x70 counter.o
 .debug_ranges  0x000011b8       0x40 sys_tick.o
 .debug_ranges  0x000011f8       0x98 isr.o
 .debug_ranges  0x00001290       0x20 os_arctest.o
 .debug_ranges  0x000012b0       0xa8 application.o
 .debug_ranges  0x00001358       0x40 irq.o
 .debug_ranges  0x00001398       0xc0 Spi.o
 .debug_ranges  0x00001458       0x20 Spi_Lcfg.o
 .debug_ranges  0x00001478       0x30 Det.o
 .debug_ranges  0x000014a8       0x88 Com_Com.o
 .debug_ranges  0x00001530       0x28 Com_Sched.o
 .debug_ranges  0x00001558       0x68 Com.o
 .debug_ranges  0x000015c0       0x98 Com_misc.o
 .debug_ranges  0x00001658       0x40 IoHwAb_Digital.o
 .debug_ranges  0x00001698       0x40 ramlog.o
 .debug_ranges  0x000016d8       0x58 cirq_buffer.o
 .debug_ranges  0x00001730       0x68 clib_port.o
 .debug_ranges  0x00001798       0x88 printf.o
 .debug_ranges  0x00001820       0x20 xtoa.o
 .debug_ranges  0x00001840       0x60 Pwm.o
